(isymboltable
SymbolTable
p0
(dp1
S'size'
p2
I0
sS'singletonObject'
p3
(isymboltable
SymbolTable
p4
(dp5
g2
I0
sS'functions'
p6
ccopy_reg
_reconstructor
p7
(csymboltable
Dictlist
p8
c__builtin__
dict
p9
(dp10
S'fibo'
p11
(lp12
(isymboltable
SymbolTable
p13
(dp14
g2
I0
sg6
g7
(g8
g9
(dp15
tp16
Rp17
sS'itemcount'
p18
I6
sS'name'
p19
g11
sS'parent'
p20
g4
sS'offsetmap'
p21
(dp22
I4
I0
sI44
I1
sI48
I2
sI52
I3
sI56
I4
sI60
I5
ssS'variables'
p23
(dp24
S'f'
p25
(lp26
I0
aS'ARRAYINT'
p27
aI10
aI4
asS'i'
p28
(lp29
I0
aS'INT'
p30
aI0
aI44
asS't5'
p31
(lp32
I0
aS'INT'
p33
aI0
aI48
asS'n'
p34
(lp35
I0
ag30
aI0
aI0
asS't10'
p36
(lp37
I0
aS'INT'
p38
aI0
aI52
asS't'
p39
(lp40
I0
ag30
aI0
aI56
assS'sizevars'
p41
(dp42
g25
(lp43
I0
ag27
aI10
asg28
(lp44
I0
ag30
aI0
asg31
(lp45
I0
ag33
aI0
asg34
(lp46
I0
ag30
aI0
asg36
(lp47
I0
ag38
aI0
asg39
(lp48
I0
ag30
aI0
assS'classes'
p49
g7
(g8
g9
(dp50
tp51
Rp52
sS'objects'
p53
(dp54
sS'offset'
p55
I60
sS'returnType'
p56
(lp57
g30
asS'argList'
p58
(lp59
g30
asS'uid'
p60
I2
sbasS'main'
p61
(lp62
(isymboltable
SymbolTable
p63
(dp64
g2
I0
sg6
g7
(g8
g9
(dp65
tp66
Rp67
sg18
I3
sg19
g61
sg20
g4
sg21
(dp68
I10
I0
sI18
I2
sI14
I1
ssg23
(dp69
S'k'
p70
(lp71
I0
ag30
aI0
aI14
asS'args'
p72
(lp73
I0
aS'ARRAYSTRING'
p74
aI0
aI0
asS't17'
p75
(lp76
I0
ag30
aI0
aI10
assg41
(dp77
g70
(lp78
I0
ag30
aI0
asg72
(lp79
I0
ag74
aI0
asg75
(lp80
I0
ag30
aI0
assg49
g7
(g8
g9
(dp81
tp82
Rp83
sg53
(dp84
sg55
I18
sg56
(lp85
sg58
(lp86
g74
asg60
I3
sbastp87
Rp88
sg18
I0
sg19
S'object'
p89
sg20
g0
sg21
(dp90
sg23
(dp91
sg41
(dp92
sg49
g7
(g8
g9
(dp93
tp94
Rp95
sg53
(dp96
sg55
I0
sg56
Nsg58
(lp97
sg60
I1
sbsg6
g7
(g8
g9
(dp98
tp99
Rp100
sg18
I0
sg19
S'root'
p101
sg20
Nsg21
(dp102
sg23
(dp103
sg41
(dp104
sg49
g7
(g8
g9
(dp105
tp106
Rp107
sg53
(dp108
sg55
I0
sg56
Nsg58
g97
sg60
I0
sb.