(isymboltable
SymbolTable
p0
(dp1
S'listdict'
p2
(dp3
sS'functions'
p4
ccopy_reg
_reconstructor
p5
(csymboltable
Dictlist
p6
c__builtin__
dict
p7
(dp8
tp9
Rp10
sS'itemcount'
p11
I0
sS'name'
p12
S'root'
p13
sS'objects'
p14
(dp15
sS'offsetmap'
p16
(dp17
sS'variables'
p18
(dp19
sS'size'
p20
I0
sS'sizevars'
p21
(dp22
sS'classes'
p23
g5
(g6
g7
(dp24
tp25
Rp26
sS'parent'
p27
NsS'singletonObject'
p28
(isymboltable
SymbolTable
p29
(dp30
g2
(dp31
sg4
g5
(g6
g7
(dp32
S'print'
p33
(lp34
(isymboltable
SymbolTable
p35
(dp36
g2
(dp37
sg4
g5
(g6
g7
(dp38
tp39
Rp40
sg11
I2
sg12
g33
sg14
(dp41
sg16
(dp42
I8
I1
sI4
I0
ssg18
(dp43
S'i'
p44
(lp45
I0
aS'INT'
p46
aI0
aI4
asS'size'
p47
(lp48
I0
ag46
aI0
aI0
assg20
I0
sg21
(dp49
g44
(lp50
I0
ag46
aI0
asS't122'
p51
(lp52
I0
ag46
aI0
asS't121'
p53
(lp54
I0
aS'INT'
p55
aI0
asg47
(lp56
I0
ag46
aI0
assg23
g5
(g6
g7
(dp57
tp58
Rp59
sg27
g29
sS'offset'
p60
I8
sS'returnType'
p61
(lp62
sS'argList'
p63
(lp64
g46
asS'uid'
p65
I7
sbasS'scan'
p66
(lp67
(isymboltable
SymbolTable
p68
(dp69
g2
(dp70
sg4
g5
(g6
g7
(dp71
tp72
Rp73
sg11
I3
sg12
g66
sg14
(dp74
sg16
(dp75
I8
I1
sI12
I2
sI4
I0
ssg18
(dp76
g44
(lp77
I0
ag46
aI0
aI4
asS't'
p78
(lp79
I0
ag46
aI0
aI8
asS'size'
p80
(lp81
I0
ag46
aI0
aI0
assg20
I0
sg21
(dp82
g44
(lp83
I0
ag46
aI0
asS't140'
p84
(lp85
I0
aS'INT'
p86
aI0
asS't141'
p87
(lp88
I0
ag46
aI0
asg78
(lp89
I0
ag46
aI0
asg80
(lp90
I0
ag46
aI0
assg23
g5
(g6
g7
(dp91
tp92
Rp93
sg27
g29
sg60
I12
sg61
(lp94
sg63
(lp95
g46
asg65
I9
sbasS'main'
p96
(lp97
(isymboltable
SymbolTable
p98
(dp99
g2
(dp100
sg4
g5
(g6
g7
(dp101
tp102
Rp103
sg11
I0
sg12
g96
sg14
(dp104
sg16
(dp105
sg18
(dp106
sg20
I0
sg21
(dp107
sg23
g5
(g6
g7
(dp108
tp109
Rp110
sg27
g29
sg60
I0
sg61
(lp111
sg63
(lp112
sg65
I11
sbasS'quickSort'
p113
(lp114
(isymboltable
SymbolTable
p115
(dp116
g2
(dp117
sg4
g5
(g6
g7
(dp118
tp119
Rp120
sg11
I2
sg12
g113
sg14
(dp121
sg16
(dp122
I8
I1
sI4
I0
ssg18
(dp123
S'high'
p124
(lp125
I0
ag46
aI0
aI4
asS'low'
p126
(lp127
I0
ag46
aI0
aI0
assg20
I0
sg21
(dp128
S't101'
p129
(lp130
I0
ag46
aI0
asg124
(lp131
I0
ag46
aI0
asS't98'
p132
(lp133
I0
ag46
aI0
asg126
(lp134
I0
ag46
aI0
asS't88'
p135
(lp136
I0
aS'BOOL'
p137
aI0
asS't95'
p138
(lp139
I0
ag46
aI0
asS'pi'
p140
(lp141
I0
ag46
aI0
asS'u'
p142
(lp143
I0
ag46
aI0
asg78
(lp144
I0
ag46
aI0
assg23
g5
(g6
g7
(dp145
tp146
Rp147
sg27
g29
sg60
I8
sg61
(lp148
sg63
(lp149
g46
ag46
asg65
I5
sbasS'partition'
p150
(lp151
(isymboltable
SymbolTable
p152
(dp153
g2
(dp154
sg4
g5
(g6
g7
(dp155
tp156
Rp157
sg11
I21
sg12
g150
sg14
(dp158
sg16
(dp159
I32
I7
sI48
I11
sI4
I0
sI68
I16
sI80
I19
sI8
I1
sI44
I10
sI12
I2
sI84
I20
sI64
I15
sI60
I14
sI16
I3
sI40
I9
sI20
I4
sI76
I18
sI56
I13
sI24
I5
sI36
I8
sI28
I6
sI72
I17
sI52
I12
ssg18
(dp160
S't72'
p161
(lp162
I0
ag46
aI0
aI64
asS't68'
p163
(lp164
I0
ag46
aI0
aI56
asS't81'
p165
(lp166
I0
ag46
aI0
aI80
asg44
(lp167
I0
ag46
aI0
aI24
asS't7'
p168
(lp169
I0
ag46
aI0
aI20
asS't4'
p170
(lp171
I0
ag46
aI0
aI8
asS'j'
p172
(lp173
I0
ag46
aI0
aI28
asS't61'
p174
(lp175
I0
ag46
aI0
aI44
asS't3'
p176
(lp177
I0
aS'INT'
p178
aI0
aI12
asS't57'
p179
(lp180
I0
ag46
aI0
aI40
asS'high'
p181
(lp182
I0
ag46
aI0
aI4
asS'till'
p183
(lp184
I0
ag46
aI0
aI36
asS't71'
p185
(lp186
I0
aS'INT'
p187
aI0
aI68
asS'low'
p188
(lp189
I0
ag46
aI0
aI0
asS't12'
p190
(lp191
I0
ag46
aI0
aI32
asS't64'
p192
(lp193
I0
ag46
aI0
aI52
asS'pivot'
p194
(lp195
I0
ag46
aI0
aI16
asS't78'
p196
(lp197
I0
ag46
aI0
aI72
asS't67'
p198
(lp199
I0
aS'INT'
p200
aI0
aI60
asS't60'
p201
(lp202
I0
aS'INT'
p203
aI0
aI48
asS't77'
p204
(lp205
I0
aS'INT'
p206
aI0
aI76
assg20
I0
sg21
(dp207
S't49'
p208
(lp209
I0
aS'INT'
p210
aI0
asg163
(lp211
I0
ag46
aI0
asS't43'
p212
(lp213
I0
aS'INT'
p214
aI0
asg192
(lp215
I0
ag46
aI0
asg198
(lp216
I0
ag200
aI0
asS't40'
p217
(lp218
I0
ag46
aI0
asg174
(lp219
I0
ag46
aI0
asg201
(lp220
I0
ag203
aI0
asS't44'
p221
(lp222
I0
ag46
aI0
asg181
(lp223
I0
ag46
aI0
asg194
(lp224
I0
ag46
aI0
asg165
(lp225
I0
ag46
aI0
asg161
(lp226
I0
ag46
aI0
asg183
(lp227
I0
ag46
aI0
asg185
(lp228
I0
ag187
aI0
asg188
(lp229
I0
ag46
aI0
asg190
(lp230
I0
ag46
aI0
asS't39'
p231
(lp232
I0
aS'INT'
p233
aI0
asS't34'
p234
(lp235
I0
ag46
aI0
asS't33'
p236
(lp237
I0
aS'INT'
p238
aI0
asg204
(lp239
I0
ag206
aI0
asS't50'
p240
(lp241
I0
ag46
aI0
asg179
(lp242
I0
ag46
aI0
asg196
(lp243
I0
ag46
aI0
asS'temp'
p244
(lp245
I0
ag46
aI0
asg44
(lp246
I0
ag46
aI0
asg168
(lp247
I0
ag46
aI0
asg170
(lp248
I0
ag46
aI0
asg172
(lp249
I0
ag46
aI0
asg176
(lp250
I0
ag178
aI0
asS't28'
p251
(lp252
I0
ag46
aI0
asS't21'
p253
(lp254
I0
aS'INT'
p255
aI0
asS't22'
p256
(lp257
I0
ag46
aI0
asS't25'
p258
(lp259
I0
ag137
aI0
assg23
g5
(g6
g7
(dp260
tp261
Rp262
sg27
g29
sg60
I84
sg61
(lp263
g46
asg63
(lp264
g46
ag46
asg65
I2
sbastp265
Rp266
sg11
I1
sg12
S'object'
p267
sg14
(dp268
sg16
(dp269
I40
I0
ssg18
(dp270
S'a'
p271
(lp272
I0
aS'ARRAYINT'
p273
aI10
aI0
assg20
I0
sg21
(dp274
g271
(lp275
I0
ag273
aI10
assg23
g5
(g6
g7
(dp276
tp277
Rp278
sg27
g0
sg60
I40
sg61
Nsg63
(lp279
sg65
I1
sbsg60
I0
sg61
Nsg63
g279
sg65
I0
sb.