(isymboltable
SymbolTable
p0
(dp1
S'size'
p2
I0
sS'singletonObject'
p3
(isymboltable
SymbolTable
p4
(dp5
g2
I0
sS'functions'
p6
ccopy_reg
_reconstructor
p7
(csymboltable
Dictlist
p8
c__builtin__
dict
p9
(dp10
S'print'
p11
(lp12
(isymboltable
SymbolTable
p13
(dp14
g2
I0
sg6
g7
(g8
g9
(dp15
tp16
Rp17
sS'itemcount'
p18
I6
sS'name'
p19
g11
sS'parent'
p20
g4
sS'offsetmap'
p21
(dp22
I4
I0
sI8
I1
sI12
I2
sI16
I3
sI20
I4
sI24
I5
ssS'variables'
p23
(dp24
S'filew'
p25
(lp26
I0
aS'INT'
p27
aI0
aI8
asS'i'
p28
(lp29
I0
ag27
aI0
aI4
asS't121'
p30
(lp31
I0
ag27
aI0
aI12
asS't146'
p32
(lp33
I0
ag27
aI0
aI20
asS'size'
p34
(lp35
I0
ag27
aI0
aI0
asS'out'
p36
(lp37
I0
ag27
aI0
aI16
assS'sizevars'
p38
(dp39
g32
(lp40
I0
ag27
aI0
asg25
(lp41
I0
ag27
aI0
asg28
(lp42
I0
ag27
aI0
asg30
(lp43
I0
ag27
aI0
asS't133'
p44
(lp45
I0
ag27
aI0
asS't140'
p46
(lp47
I0
ag27
aI0
asg34
(lp48
I0
ag27
aI0
asS't132'
p49
(lp50
I0
aS'INT'
p51
aI0
asg36
(lp52
I0
ag27
aI0
assS'classes'
p53
g7
(g8
g9
(dp54
tp55
Rp56
sS'objects'
p57
(dp58
sS'offset'
p59
I24
sS'returnType'
p60
(lp61
sS'argList'
p62
(lp63
g27
asS'uid'
p64
I7
sbasS'scan'
p65
(lp66
(isymboltable
SymbolTable
p67
(dp68
g2
I0
sg6
g7
(g8
g9
(dp69
tp70
Rp71
sg18
I6
sg19
g65
sg20
g4
sg21
(dp72
I4
I0
sI8
I1
sI12
I2
sI16
I3
sI20
I4
sI24
I5
ssg23
(dp73
S'filep'
p74
(lp75
I0
ag27
aI0
aI12
asS't157'
p76
(lp77
I0
ag27
aI0
aI16
asg28
(lp78
I0
ag27
aI0
aI4
asS't180'
p79
(lp80
I0
ag27
aI0
aI20
asS't'
p81
(lp82
I0
ag27
aI0
aI8
asS'size'
p83
(lp84
I0
ag27
aI0
aI0
assg38
(dp85
g74
(lp86
I0
ag27
aI0
asg76
(lp87
I0
ag27
aI0
asS't172'
p88
(lp89
I0
ag27
aI0
asg28
(lp90
I0
ag27
aI0
asg79
(lp91
I0
ag27
aI0
asS't168'
p92
(lp93
I0
ag27
aI0
asg81
(lp94
I0
ag27
aI0
asg83
(lp95
I0
ag27
aI0
asS't171'
p96
(lp97
I0
aS'INT'
p98
aI0
assg53
g7
(g8
g9
(dp99
tp100
Rp101
sg57
(dp102
sg59
I24
sg60
(lp103
sg62
(lp104
g27
asg64
I9
sbasS'main'
p105
(lp106
(isymboltable
SymbolTable
p107
(dp108
g2
I0
sg6
g7
(g8
g9
(dp109
tp110
Rp111
sg18
I0
sg19
g105
sg20
g4
sg21
(dp112
sg23
(dp113
sg38
(dp114
sg53
g7
(g8
g9
(dp115
tp116
Rp117
sg57
(dp118
sg59
I0
sg60
(lp119
sg62
(lp120
sg64
I11
sbasS'quickSort'
p121
(lp122
(isymboltable
SymbolTable
p123
(dp124
g2
I0
sg6
g7
(g8
g9
(dp125
tp126
Rp127
sg18
I2
sg19
g121
sg20
g4
sg21
(dp128
I8
I1
sI4
I0
ssg23
(dp129
S'high'
p130
(lp131
I0
ag27
aI0
aI4
asS'low'
p132
(lp133
I0
ag27
aI0
aI0
assg38
(dp134
S't101'
p135
(lp136
I0
ag27
aI0
asg130
(lp137
I0
ag27
aI0
asS't98'
p138
(lp139
I0
ag27
aI0
asg132
(lp140
I0
ag27
aI0
asS't88'
p141
(lp142
I0
aS'BOOL'
p143
aI0
asS't95'
p144
(lp145
I0
ag27
aI0
asS'pi'
p146
(lp147
I0
ag27
aI0
asS'u'
p148
(lp149
I0
ag27
aI0
asg81
(lp150
I0
ag27
aI0
assg53
g7
(g8
g9
(dp151
tp152
Rp153
sg57
(dp154
sg59
I8
sg60
(lp155
sg62
(lp156
g27
ag27
asg64
I5
sbasS'partition'
p157
(lp158
(isymboltable
SymbolTable
p159
(dp160
g2
I0
sg6
g7
(g8
g9
(dp161
tp162
Rp163
sg18
I21
sg19
g157
sg20
g4
sg21
(dp164
I32
I7
sI48
I11
sI4
I0
sI68
I16
sI80
I19
sI8
I1
sI44
I10
sI12
I2
sI84
I20
sI64
I15
sI60
I14
sI16
I3
sI40
I9
sI20
I4
sI76
I18
sI56
I13
sI24
I5
sI36
I8
sI28
I6
sI72
I17
sI52
I12
ssg23
(dp165
S't72'
p166
(lp167
I0
ag27
aI0
aI64
asS't68'
p168
(lp169
I0
ag27
aI0
aI56
asS't81'
p170
(lp171
I0
ag27
aI0
aI80
asg28
(lp172
I0
ag27
aI0
aI24
asS't7'
p173
(lp174
I0
ag27
aI0
aI20
asS't4'
p175
(lp176
I0
ag27
aI0
aI8
asS'j'
p177
(lp178
I0
ag27
aI0
aI28
asS't61'
p179
(lp180
I0
ag27
aI0
aI44
asS't3'
p181
(lp182
I0
aS'INT'
p183
aI0
aI12
asS't57'
p184
(lp185
I0
ag27
aI0
aI40
asS'high'
p186
(lp187
I0
ag27
aI0
aI4
asS'till'
p188
(lp189
I0
ag27
aI0
aI36
asS't71'
p190
(lp191
I0
aS'INT'
p192
aI0
aI68
asS'low'
p193
(lp194
I0
ag27
aI0
aI0
asS't12'
p195
(lp196
I0
ag27
aI0
aI32
asS't64'
p197
(lp198
I0
ag27
aI0
aI52
asS'pivot'
p199
(lp200
I0
ag27
aI0
aI16
asS't78'
p201
(lp202
I0
ag27
aI0
aI72
asS't67'
p203
(lp204
I0
aS'INT'
p205
aI0
aI60
asS't60'
p206
(lp207
I0
aS'INT'
p208
aI0
aI48
asS't77'
p209
(lp210
I0
aS'INT'
p211
aI0
aI76
assg38
(dp212
S't49'
p213
(lp214
I0
aS'INT'
p215
aI0
asg168
(lp216
I0
ag27
aI0
asS't43'
p217
(lp218
I0
aS'INT'
p219
aI0
asg197
(lp220
I0
ag27
aI0
asg203
(lp221
I0
ag205
aI0
asS't40'
p222
(lp223
I0
ag27
aI0
asg179
(lp224
I0
ag27
aI0
asg206
(lp225
I0
ag208
aI0
asS't44'
p226
(lp227
I0
ag27
aI0
asg186
(lp228
I0
ag27
aI0
asg199
(lp229
I0
ag27
aI0
asg170
(lp230
I0
ag27
aI0
asg166
(lp231
I0
ag27
aI0
asg188
(lp232
I0
ag27
aI0
asg190
(lp233
I0
ag192
aI0
asg193
(lp234
I0
ag27
aI0
asg195
(lp235
I0
ag27
aI0
asS't39'
p236
(lp237
I0
aS'INT'
p238
aI0
asS't34'
p239
(lp240
I0
ag27
aI0
asS't33'
p241
(lp242
I0
aS'INT'
p243
aI0
asg209
(lp244
I0
ag211
aI0
asS't50'
p245
(lp246
I0
ag27
aI0
asg184
(lp247
I0
ag27
aI0
asg201
(lp248
I0
ag27
aI0
asS'temp'
p249
(lp250
I0
ag27
aI0
asg28
(lp251
I0
ag27
aI0
asg173
(lp252
I0
ag27
aI0
asg175
(lp253
I0
ag27
aI0
asg177
(lp254
I0
ag27
aI0
asg181
(lp255
I0
ag183
aI0
asS't28'
p256
(lp257
I0
ag27
aI0
asS't21'
p258
(lp259
I0
aS'INT'
p260
aI0
asS't22'
p261
(lp262
I0
ag27
aI0
asS't25'
p263
(lp264
I0
ag143
aI0
assg53
g7
(g8
g9
(dp265
tp266
Rp267
sg57
(dp268
sg59
I84
sg60
(lp269
g27
asg62
(lp270
g27
ag27
asg64
I2
sbastp271
Rp272
sg18
I1
sg19
S'object'
p273
sg20
g0
sg21
(dp274
I40
I0
ssg23
(dp275
S'a'
p276
(lp277
I0
aS'ARRAYINT'
p278
aI10
aI0
assg38
(dp279
g276
(lp280
I0
ag278
aI10
assg53
g7
(g8
g9
(dp281
tp282
Rp283
sg57
(dp284
sg59
I40
sg60
Nsg62
(lp285
sg64
I1
sbsg6
g7
(g8
g9
(dp286
tp287
Rp288
sg18
I0
sg19
S'root'
p289
sg20
Nsg21
(dp290
sg23
(dp291
sg38
(dp292
sg53
g7
(g8
g9
(dp293
tp294
Rp295
sg57
(dp296
sg59
I0
sg60
Nsg62
g285
sg64
I0
sb.