(isymboltable
SymbolTable
p0
(dp1
S'listdict'
p2
(dp3
sS'functions'
p4
ccopy_reg
_reconstructor
p5
(csymboltable
Dictlist
p6
c__builtin__
dict
p7
(dp8
tp9
Rp10
sS'itemcount'
p11
I0
sS'name'
p12
S'root'
p13
sS'objects'
p14
(dp15
sS'offsetmap'
p16
(dp17
sS'variables'
p18
(dp19
sS'size'
p20
I0
sS'sizevars'
p21
(dp22
sS'classes'
p23
g5
(g6
g7
(dp24
tp25
Rp26
sS'parent'
p27
NsS'singletonObject'
p28
(isymboltable
SymbolTable
p29
(dp30
g2
(dp31
<<<<<<< HEAD
sg4
g5
(g6
g7
(dp32
S'main'
p33
(lp34
(isymboltable
SymbolTable
p35
(dp36
g2
(dp37
sg4
g5
(g6
g7
(dp38
tp39
Rp40
sg11
I3
sg12
g33
sg14
(dp41
sg16
(dp42
I8
I1
sI12
I2
sI4
I0
ssg18
(dp43
S'k'
p44
(lp45
I0
aS'INT'
p46
aI0
aI8
asS'm'
p47
(lp48
I0
ag46
aI0
aI0
asS'n'
p49
(lp50
I0
ag46
aI0
aI4
assg20
I0
sg21
(dp51
g44
(lp52
I0
ag46
aI0
asg47
(lp53
I0
ag46
aI0
asS't78'
p54
(lp55
I0
ag46
aI0
asg49
(lp56
I0
ag46
aI0
assg23
g5
(g6
g7
(dp57
tp58
Rp59
sg27
g29
sS'offset'
p60
I12
sS'returnType'
p61
(lp62
sS'argList'
p63
(lp64
sS'uid'
p65
I5
sbasS'acker'
p66
(lp67
(isymboltable
SymbolTable
p68
(dp69
g2
(dp70
sg4
g5
(g6
g7
(dp71
tp72
Rp73
sg11
I9
sg12
g66
sg14
(dp74
sg16
(dp75
I32
I7
sI4
I0
sI8
I1
sI12
=======
S'f2'
p32
I0
sS'f3'
p33
(dp34
S'1'
p35
I2
sS'0'
p36
I0
sS'3'
p37
I0
sS'2'
p38
I0
sS'5'
p39
I0
sS'4'
p40
I0
sS'7'
p41
I0
sS'6'
p42
I0
sS'9'
p43
I0
sS'8'
p44
I0
sssg4
g5
(g6
g7
(dp45
S'main'
p46
(lp47
(isymboltable
SymbolTable
p48
(dp49
g2
(dp50
S'f'
p51
I4
ssg4
g5
(g6
g7
(dp52
tp53
Rp54
sg11
I6
sg12
g46
sg14
(dp55
sg16
(dp56
I66
I5
sI40
I0
sI50
I1
sI54
>>>>>>> 9d5d3dd8580551becb8e28b1c8c85266a288bac0
I2
sI58
I3
<<<<<<< HEAD
sI20
I4
sI24
I5
sI36
I8
sI28
I6
ssg18
(dp76
S't48'
p77
(lp78
I0
ag46
aI0
aI28
asS't55'
p79
(lp80
I0
ag46
aI0
aI32
asg47
(lp81
I0
ag46
aI0
aI0
asS'l'
p82
(lp83
I0
ag46
aI0
aI16
asS't45'
p84
(lp85
I0
ag46
aI0
aI24
asg49
(lp86
I0
ag46
aI0
aI4
asS't'
p87
(lp88
I0
ag46
aI0
aI8
asS't38'
p89
(lp90
I0
ag46
aI0
aI20
asS'z'
p91
(lp92
I0
ag46
aI0
aI12
assg20
I0
sg21
(dp93
g77
(lp94
I0
ag46
aI0
asg79
(lp95
I0
ag46
aI0
asS't25'
p96
(lp97
I0
ag46
aI0
asg47
(lp98
I0
ag46
aI0
asg82
(lp99
I0
ag46
aI0
asg84
(lp100
I0
ag46
aI0
asg49
(lp101
I0
ag46
aI0
asS't14'
p102
(lp103
I0
ag46
aI0
asg87
(lp104
I0
ag46
aI0
asg89
(lp105
I0
ag46
aI0
asS't13'
p106
(lp107
I0
aS'BOOL'
p108
aI0
asg91
(lp109
I0
ag46
aI0
asS't32'
p110
(lp111
I0
ag46
aI0
asS't24'
p112
(lp113
I0
ag108
=======
sI62
I4
ssg18
(dp57
S'a'
p58
(lp59
I0
aS'INT'
p60
aI0
aI62
asS'f1'
p61
(lp62
I0
aS'ARRAYINT'
p63
aI10
aI0
asg51
(lp64
I0
aS'LIST@INT'
p65
aI0
aI40
asS't32'
p66
(lp67
I0
ag60
aI0
aI50
asS't33'
p68
(lp69
I0
ag60
aI0
aI58
asS't31'
p70
(lp71
I0
aS'INT'
p72
aI0
aI54
assg20
I0
sg21
(dp73
g58
(lp74
I0
ag60
aI0
asg61
(lp75
I0
ag63
aI10
asg51
(lp76
I0
ag65
aI0
asg66
(lp77
I0
ag60
aI0
asg68
(lp78
I0
ag60
aI0
asg70
(lp79
I0
ag72
>>>>>>> 9d5d3dd8580551becb8e28b1c8c85266a288bac0
aI0
assg23
g5
(g6
g7
<<<<<<< HEAD
(dp114
tp115
Rp116
sg27
g29
sg60
I36
sg61
(lp117
g46
asg63
(lp118
g46
ag46
asg65
I2
sbastp119
Rp120
sg11
I0
sg12
S'object'
p121
sg14
(dp122
sg16
(dp123
sg18
(dp124
sg20
I0
sg21
(dp125
sg23
g5
(g6
g7
(dp126
tp127
Rp128
sg27
g0
sg60
I0
sg61
Nsg63
(lp129
sg65
I1
sbsg60
I0
sg61
Nsg63
g129
sg65
=======
(dp80
tp81
Rp82
sg27
g29
sS'offset'
p83
I66
sS'returnType'
p84
(lp85
sS'argList'
p86
(lp87
sS'uid'
p88
I2
sbastp89
Rp90
sg11
I2
sg12
S'object'
p91
sg14
(dp92
sg16
(dp93
I10
I0
sI110
I1
ssg18
(dp94
g32
(lp95
I0
aS'LIST@INT'
p96
aI0
aI0
asg33
(lp97
I0
aS'LIST@LIST@INT'
p98
aI10
aI10
assg20
I0
sg21
(dp99
g32
(lp100
I0
ag96
aI0
asg33
(lp101
I0
ag98
aI10
assg23
g5
(g6
g7
(dp102
tp103
Rp104
sg27
g0
sg83
I110
sg84
Nsg86
(lp105
sg88
I1
sbsg83
I0
sg84
Nsg86
g105
sg88
>>>>>>> 9d5d3dd8580551becb8e28b1c8c85266a288bac0
I0
sb.