(isymboltable
SymbolTable
p0
(dp1
S'size'
p2
I0
sS'singletonObject'
p3
(isymboltable
SymbolTable
p4
(dp5
g2
I0
sS'functions'
p6
ccopy_reg
_reconstructor
p7
(csymboltable
Dictlist
p8
c__builtin__
dict
p9
(dp10
S'main'
p11
(lp12
(isymboltable
SymbolTable
p13
(dp14
g2
I0
sg6
g7
(g8
g9
(dp15
tp16
Rp17
sS'itemcount'
p18
I0
sS'name'
p19
g11
sS'parent'
p20
g4
sS'offsetmap'
p21
(dp22
<<<<<<< HEAD
sS'variables'
p23
(dp24
sS'sizevars'
=======
I10
I0
sI18
I2
sI14
I1
ssS'variables'
p23
(dp24
S'k'
>>>>>>> 8d7d3a1abc61348a4666df1fec4038df7b896238
p25
(dp26
sS'classes'
p27
<<<<<<< HEAD
g7
(g8
g9
(dp28
tp29
Rp30
sS'objects'
p31
(dp32
sS'offset'
p33
I0
sS'returnType'
p34
(lp35
sS'argList'
p36
(lp37
sS'uid'
p38
I3
sbasS'scana'
p39
(lp40
(isymboltable
SymbolTable
p41
(dp42
g2
I0
sg6
g7
(g8
g9
(dp43
tp44
Rp45
sg18
I4
sg19
g39
sg20
g4
sg21
(dp46
I8
=======
aI0
aI14
asS'args'
p28
(lp29
I0
aS'ARRAYSTRING'
p30
aI0
aI0
asS't26'
p31
(lp32
I0
ag27
aI0
aI10
assS'sizevars'
p33
(dp34
g25
(lp35
I0
ag27
aI0
asg28
(lp36
I0
ag30
aI0
asg31
(lp37
I0
ag27
aI0
assS'classes'
p38
g7
(g8
g9
(dp39
tp40
Rp41
sS'objects'
p42
(dp43
sS'offset'
p44
I18
sS'returnType'
p45
(lp46
sS'argList'
p47
(lp48
g30
asS'uid'
p49
I3
sbasS'sub'
p50
(lp51
(isymboltable
SymbolTable
p52
(dp53
g2
I0
sg6
g7
(g8
g9
(dp54
tp55
Rp56
sg18
I15
sg19
g50
sg20
g4
sg21
(dp57
I32
I7
sI48
I11
sI4
I0
sI8
>>>>>>> 8d7d3a1abc61348a4666df1fec4038df7b896238
I1
sI44
I10
sI12
I2
sI60
I14
sI16
I3
sI40
I9
sI20
I4
sI56
I13
sI24
I5
sI36
I8
sI28
I6
sI52
I12
ssg23
<<<<<<< HEAD
(dp47
S'i'
p48
(lp49
=======
(dp58
S'a'
p59
(lp60
I0
ag27
aI0
aI0
asS'c'
p61
(lp62
I0
ag27
aI0
aI8
asS'b'
p63
(lp64
>>>>>>> 8d7d3a1abc61348a4666df1fec4038df7b896238
I0
aS'INT'
p50
aI0
aI4
<<<<<<< HEAD
asS'j'
p51
(lp52
=======
asS'e'
p65
(lp66
I0
ag27
aI0
aI16
asS'd'
p67
(lp68
I0
ag27
aI0
aI12
asS'g'
p69
(lp70
I0
ag27
aI0
aI24
asS'f'
p71
(lp72
I0
ag27
aI0
aI20
asS't6'
p73
(lp74
I0
ag27
aI0
aI52
asS'h'
p75
(lp76
I0
ag27
aI0
aI28
asS't4'
p77
(lp78
I0
ag27
aI0
aI44
asS't5'
p79
(lp80
>>>>>>> 8d7d3a1abc61348a4666df1fec4038df7b896238
I0
ag50
aI0
<<<<<<< HEAD
aI8
asS't'
p53
(lp54
=======
aI48
asS't2'
p81
(lp82
>>>>>>> 8d7d3a1abc61348a4666df1fec4038df7b896238
I0
ag50
aI0
<<<<<<< HEAD
aI12
asS'size'
p55
(lp56
=======
aI36
asS't3'
p83
(lp84
I0
ag27
aI0
aI40
asS't1'
p85
(lp86
I0
ag27
aI0
aI32
asS't7'
p87
(lp88
I0
ag27
aI0
aI56
assg33
(dp89
g59
(lp90
>>>>>>> 8d7d3a1abc61348a4666df1fec4038df7b896238
I0
ag50
aI0
<<<<<<< HEAD
aI0
assg25
(dp57
g48
(lp58
=======
asg61
(lp91
I0
ag27
aI0
asg63
(lp92
I0
ag27
aI0
asg65
(lp93
>>>>>>> 8d7d3a1abc61348a4666df1fec4038df7b896238
I0
ag50
aI0
<<<<<<< HEAD
asg51
(lp59
=======
asg67
(lp94
>>>>>>> 8d7d3a1abc61348a4666df1fec4038df7b896238
I0
ag50
aI0
<<<<<<< HEAD
asg53
(lp60
I0
ag50
aI0
asg55
(lp61
I0
ag50
aI0
assg27
g7
(g8
g9
(dp62
tp63
Rp64
sg31
(dp65
sg33
I16
sg34
(lp66
sg36
(lp67
g50
asg38
I2
sbastp68
Rp69
=======
asg69
(lp95
I0
ag27
aI0
asg71
(lp96
I0
ag27
aI0
asg73
(lp97
I0
ag27
aI0
asg75
(lp98
I0
ag27
aI0
asg77
(lp99
I0
ag27
aI0
asg79
(lp100
I0
ag27
aI0
asg81
(lp101
I0
ag27
aI0
asg83
(lp102
I0
ag27
aI0
asg85
(lp103
I0
ag27
aI0
asg87
(lp104
I0
ag27
aI0
assg38
g7
(g8
g9
(dp105
tp106
Rp107
sg42
(dp108
sg44
I60
sg45
(lp109
g27
asg47
(lp110
g27
ag27
ag27
ag27
ag27
ag27
ag27
ag27
asg49
I2
sbastp111
Rp112
>>>>>>> 8d7d3a1abc61348a4666df1fec4038df7b896238
sg18
I0
sg19
S'object'
<<<<<<< HEAD
p70
sg20
g0
sg21
(dp71
I200
I1
sI300
I2
sI100
I0
ssg23
(dp72
S'a'
p73
(lp74
I0
aS'ARRAYARRAYINT'
p75
aI5
aI5
aI0
asS'c'
p76
(lp77
I0
aS'ARRAYARRAYINT'
p78
aI5
aI5
aI200
asS'b'
p79
(lp80
I0
aS'ARRAYARRAYINT'
p81
aI5
aI5
aI100
assg25
(dp82
g73
(lp83
I0
ag75
aI5
aI5
asg76
(lp84
I0
ag78
aI5
aI5
asg79
(lp85
I0
ag81
aI5
aI5
assg27
g7
(g8
g9
(dp86
tp87
Rp88
sg31
(dp89
sg33
I300
sg34
Nsg36
(lp90
sg38
=======
p113
sg20
g0
sg21
(dp114
sg23
(dp115
sg33
(dp116
sg38
g7
(g8
g9
(dp117
tp118
Rp119
sg42
(dp120
sg44
I0
sg45
Nsg47
(lp121
sg49
>>>>>>> 8d7d3a1abc61348a4666df1fec4038df7b896238
I1
sbsg6
g7
(g8
g9
<<<<<<< HEAD
(dp91
tp92
Rp93
=======
(dp122
tp123
Rp124
>>>>>>> 8d7d3a1abc61348a4666df1fec4038df7b896238
sg18
I0
sg19
S'root'
<<<<<<< HEAD
p94
sg20
Nsg21
(dp95
sg23
(dp96
sg25
(dp97
sg27
g7
(g8
g9
(dp98
tp99
Rp100
sg31
(dp101
sg33
I0
sg34
Nsg36
g90
sg38
=======
p125
sg20
Nsg21
(dp126
sg23
(dp127
sg33
(dp128
sg38
g7
(g8
g9
(dp129
tp130
Rp131
sg42
(dp132
sg44
I0
sg45
Nsg47
g121
sg49
>>>>>>> 8d7d3a1abc61348a4666df1fec4038df7b896238
I0
sb.