(isymboltable
SymbolTable
p0
(dp1
S'size'
p2
I0
sS'singletonObject'
p3
(isymboltable
SymbolTable
p4
(dp5
g2
I0
sS'functions'
p6
ccopy_reg
_reconstructor
p7
(csymboltable
Dictlist
p8
c__builtin__
dict
p9
(dp10
S'multiply'
p11
(lp12
(isymboltable
SymbolTable
p13
(dp14
g2
I0
sg6
g7
(g8
g9
(dp15
tp16
Rp17
sS'itemcount'
p18
I4
sS'name'
p19
g11
sS'parent'
p20
g4
sS'offsetmap'
p21
(dp22
I8
I1
sI12
I2
sI4
I0
sI16
I3
ssS'variables'
p23
(dp24
S'i'
p25
(lp26
I0
aS'INT'
p27
aI0
aI4
asS'k'
p28
(lp29
I0
ag27
aI0
aI12
asS'j'
p30
(lp31
I0
ag27
aI0
aI8
asS'size'
p32
(lp33
I0
ag27
aI0
aI0
assS'sizevars'
p34
(dp35
S't120'
p36
(lp37
I0
aS'INT'
p38
aI0
asS't117'
p39
(lp40
I0
aS'INT'
p41
aI0
asg25
(lp42
I0
ag27
aI0
asg28
(lp43
I0
ag27
aI0
asg30
(lp44
I0
ag27
aI0
asS't88'
p45
(lp46
I0
ag27
aI0
asS't100'
p47
(lp48
I0
ag27
aI0
asS't112'
p49
(lp50
I0
ag27
aI0
asS't99'
p51
(lp52
I0
aS'INT'
p53
aI0
asS't106'
p54
(lp55
I0
ag27
aI0
asS't111'
p56
(lp57
I0
aS'INT'
p58
aI0
asS't87'
p59
(lp60
I0
aS'INT'
p61
aI0
asS't105'
p62
(lp63
I0
aS'INT'
p64
aI0
asS't119'
p65
(lp66
I0
aS'INT'
p67
aI0
asS't118'
p68
(lp69
I0
ag27
aI0
asg32
(lp70
I0
ag27
aI0
assS'classes'
p71
g7
(g8
g9
(dp72
tp73
Rp74
sS'objects'
p75
(dp76
sS'offset'
p77
I16
sS'returnType'
p78
(lp79
sS'argList'
p80
(lp81
g27
asS'uid'
p82
I8
sbasS'printc'
p83
(lp84
(isymboltable
SymbolTable
p85
(dp86
g2
I0
sg6
g7
(g8
g9
(dp87
tp88
Rp89
sg18
I3
sg19
g83
sg20
g4
sg21
(dp90
I8
I1
sI12
I2
sI4
I0
ssg23
(dp91
g25
(lp92
I0
ag27
aI0
aI4
asg30
(lp93
I0
ag27
aI0
aI8
asS'size'
p94
(lp95
I0
ag27
aI0
aI0
assg34
(dp96
g25
(lp97
I0
ag27
aI0
asg30
(lp98
I0
ag27
aI0
asS't149'
p99
(lp100
I0
ag27
aI0
asS't148'
p101
(lp102
I0
aS'INT'
p103
aI0
asg94
(lp104
I0
ag27
aI0
assg71
g7
(g8
g9
(dp105
tp106
Rp107
sg75
(dp108
sg77
I12
sg78
(lp109
sg80
(lp110
g27
asg82
I12
sbasS'main'
p111
(lp112
(isymboltable
SymbolTable
p113
(dp114
g2
I0
sg6
g7
(g8
g9
(dp115
tp116
Rp117
sg18
I0
sg19
g111
sg20
g4
sg21
(dp118
sg23
(dp119
sg34
(dp120
sg71
g7
(g8
g9
(dp121
tp122
Rp123
sg75
(dp124
sg77
I0
sg78
(lp125
sg80
(lp126
sg82
I15
sbasS'scana'
p127
(lp128
(isymboltable
SymbolTable
p129
(dp130
g2
I0
sg6
g7
(g8
g9
(dp131
tp132
Rp133
sg18
I6
sg19
g127
sg20
g4
sg21
(dp134
I4
I0
sI8
I1
sI12
I2
sI16
I3
sI20
I4
sI24
I5
ssg23
(dp135
g25
(lp136
I0
ag27
aI0
aI4
asg30
(lp137
I0
ag27
aI0
aI8
asS't11'
p138
(lp139
I0
aS'INT'
p140
aI0
aI20
asS't12'
p141
(lp142
I0
ag27
aI0
aI16
asS'size'
p143
(lp144
I0
ag27
aI0
aI0
asS't'
p145
(lp146
I0
ag27
aI0
aI12
assg34
(dp147
g25
(lp148
I0
ag27
aI0
asg30
(lp149
I0
ag27
aI0
asS't29'
p150
(lp151
I0
aS'INT'
p152
aI0
asg138
(lp153
I0
ag140
aI0
asg141
(lp154
I0
ag27
aI0
asg143
(lp155
I0
ag27
aI0
asS't30'
p156
(lp157
I0
ag27
aI0
asg145
(lp158
I0
ag27
aI0
assg71
g7
(g8
g9
(dp159
tp160
Rp161
sg75
(dp162
sg77
I24
sg78
(lp163
sg80
(lp164
g27
asg82
I2
sbasS'scanb'
p165
(lp166
(isymboltable
SymbolTable
p167
(dp168
g2
I0
sg6
g7
(g8
g9
(dp169
tp170
Rp171
sg18
I4
sg19
g165
sg20
g4
sg21
(dp172
I8
I1
sI12
I2
sI4
I0
sI16
I3
ssg23
(dp173
g25
(lp174
I0
ag27
aI0
aI4
asg30
(lp175
I0
ag27
aI0
aI8
asg145
(lp176
I0
ag27
aI0
aI12
asS'size'
p177
(lp178
I0
ag27
aI0
aI0
assg34
(dp179
S't59'
p180
(lp181
I0
aS'INT'
p182
aI0
asg25
(lp183
I0
ag27
aI0
asg30
(lp184
I0
ag27
aI0
asS't60'
p185
(lp186
I0
ag27
aI0
asg145
(lp187
I0
ag27
aI0
asg177
(lp188
I0
ag27
aI0
assg71
g7
(g8
g9
(dp189
tp190
Rp191
sg75
(dp192
sg77
I16
sg78
(lp193
sg80
(lp194
g27
asg82
I5
sbastp195
Rp196
sg18
I3
sg19
S'object'
p197
sg20
g0
sg21
(dp198
I200
I1
sI300
I2
sI100
I0
ssg23
(dp199
S'a'
p200
(lp201
I0
aS'ARRAYARRAYINT'
p202
aI5
aI5
aI0
asS'c'
p203
(lp204
I0
aS'ARRAYARRAYINT'
p205
aI5
aI5
aI200
asS'b'
p206
(lp207
I0
aS'ARRAYARRAYINT'
p208
aI5
aI5
aI100
assg34
(dp209
g200
(lp210
I0
ag202
aI5
aI5
asg203
(lp211
I0
ag205
aI5
aI5
asg206
(lp212
I0
ag208
aI5
aI5
assg71
g7
(g8
g9
(dp213
tp214
Rp215
sg75
(dp216
sg77
I300
sg78
Nsg80
(lp217
sg82
I1
sbsg6
g7
(g8
g9
(dp218
tp219
Rp220
sg18
I0
sg19
S'root'
p221
sg20
Nsg21
(dp222
sg23
(dp223
sg34
(dp224
sg71
g7
(g8
g9
(dp225
tp226
Rp227
sg75
(dp228
sg77
I0
sg78
Nsg80
g217
sg82
I0
sb.