(isymboltable
SymbolTable
p0
(dp1
S'size'
p2
I0
sS'singletonObject'
p3
(isymboltable
SymbolTable
p4
(dp5
g2
I0
sS'functions'
p6
ccopy_reg
_reconstructor
p7
(csymboltable
Dictlist
p8
c__builtin__
dict
p9
(dp10
S'printc'
p11
(lp12
(isymboltable
SymbolTable
p13
(dp14
g2
I0
sg6
g7
(g8
g9
(dp15
tp16
Rp17
sS'itemcount'
p18
I3
sS'name'
p19
g11
sS'parent'
p20
g4
sS'offsetmap'
p21
(dp22
I8
I1
sI12
I2
sI4
I0
ssS'variables'
p23
(dp24
S'i'
p25
(lp26
I0
aS'INT'
p27
aI0
aI4
asS'j'
p28
(lp29
I0
ag27
aI0
aI8
asS'size'
p30
(lp31
I0
ag27
aI0
aI0
assS'sizevars'
p32
(dp33
g25
(lp34
I0
ag27
aI0
asS't78'
p35
(lp36
I0
ag27
aI0
asg28
(lp37
I0
ag27
aI0
asS't77'
p38
(lp39
I0
aS'INT'
p40
aI0
asg30
(lp41
I0
ag27
aI0
assS'classes'
p42
g7
(g8
g9
(dp43
tp44
Rp45
sS'objects'
p46
(dp47
sS'offset'
p48
I12
sS'returnType'
p49
(lp50
sS'argList'
p51
(lp52
g27
asS'uid'
p53
I8
sbasS'main'
p54
(lp55
(isymboltable
SymbolTable
p56
(dp57
g2
I0
sg6
g7
(g8
g9
(dp58
tp59
Rp60
sg18
I0
sg19
g54
sg20
g4
sg21
(dp61
sg23
(dp62
sg32
(dp63
sg42
g7
(g8
g9
(dp64
tp65
Rp66
sg46
(dp67
sg48
I0
sg49
(lp68
sg51
(lp69
sg53
I11
sbasS'scana'
p70
(lp71
(isymboltable
SymbolTable
p72
(dp73
g2
I0
sg6
g7
(g8
g9
(dp74
tp75
Rp76
sg18
I4
sg19
g70
sg20
g4
sg21
(dp77
I8
I1
sI12
I2
sI4
I0
sI16
I3
ssg23
(dp78
g25
(lp79
I0
ag27
aI0
aI4
asg28
(lp80
I0
ag27
aI0
aI8
asS't'
p81
(lp82
I0
ag27
aI0
aI12
asS'size'
p83
(lp84
I0
ag27
aI0
aI0
assg32
(dp85
g25
(lp86
I0
ag27
aI0
asg28
(lp87
I0
ag27
aI0
asg81
(lp88
I0
ag27
aI0
asS't21'
p89
(lp90
I0
aS'INT'
p91
aI0
asS't22'
p92
(lp93
I0
ag27
aI0
asg83
(lp94
I0
ag27
aI0
assg42
g7
(g8
g9
(dp95
tp96
Rp97
sg46
(dp98
sg48
I16
sg49
(lp99
sg51
(lp100
g27
asg53
I2
sbasS'scanb'
p101
(lp102
(isymboltable
SymbolTable
p103
(dp104
g2
I0
sg6
g7
(g8
g9
(dp105
tp106
Rp107
sg18
I4
sg19
g101
sg20
g4
sg21
(dp108
I8
I1
sI12
I2
sI4
I0
sI16
I3
ssg23
(dp109
g25
(lp110
I0
ag27
aI0
aI4
asg28
(lp111
I0
ag27
aI0
aI8
asg81
(lp112
I0
ag27
aI0
aI12
asS'size'
p113
(lp114
I0
ag27
aI0
aI0
assg32
(dp115
g25
(lp116
I0
ag27
aI0
asS't51'
p117
(lp118
I0
aS'INT'
p119
aI0
asS't52'
p120
(lp121
I0
ag27
aI0
asg28
(lp122
I0
ag27
aI0
asg81
(lp123
I0
ag27
aI0
asg113
(lp124
I0
ag27
aI0
assg42
g7
(g8
g9
(dp125
tp126
Rp127
sg46
(dp128
sg48
I16
sg49
(lp129
sg51
(lp130
g27
asg53
I5
sbastp131
Rp132
sg18
I3
sg19
S'object'
p133
sg20
g0
sg21
(dp134
I200
I1
sI300
I2
sI100
I0
ssg23
(dp135
S'a'
p136
(lp137
I0
aS'ARRAYARRAYINT'
p138
aI5
aI5
aI0
asS'c'
p139
(lp140
I0
aS'ARRAYARRAYINT'
p141
aI5
aI5
aI200
asS'b'
p142
(lp143
I0
aS'ARRAYARRAYINT'
p144
aI5
aI5
aI100
assg32
(dp145
g136
(lp146
I0
ag138
aI5
aI5
asg139
(lp147
I0
ag141
aI5
aI5
asg142
(lp148
I0
ag144
aI5
aI5
assg42
g7
(g8
g9
(dp149
tp150
Rp151
sg46
(dp152
sg48
I300
sg49
Nsg51
(lp153
sg53
I1
sbsg6
g7
(g8
g9
(dp154
tp155
Rp156
sg18
I0
sg19
S'root'
p157
sg20
Nsg21
(dp158
sg23
(dp159
sg32
(dp160
sg42
g7
(g8
g9
(dp161
tp162
Rp163
sg46
(dp164
sg48
I0
sg49
Nsg51
g153
sg53
I0
sb.