(isymboltable
SymbolTable
p0
(dp1
S'size'
p2
I0
sS'singletonObject'
p3
(isymboltable
SymbolTable
p4
(dp5
g2
I0
sS'functions'
p6
ccopy_reg
_reconstructor
p7
(csymboltable
Dictlist
p8
c__builtin__
dict
p9
(dp10
S'newtonRaphson'
p11
(lp12
(isymboltable
SymbolTable
p13
(dp14
g2
I0
sg6
g7
(g8
g9
(dp15
tp16
Rp17
sS'itemcount'
p18
I6
sS'name'
p19
g11
sS'parent'
p20
g4
sS'offsetmap'
p21
(dp22
I4
I0
sI8
I1
sI12
I2
sI16
I3
sI20
I4
sI24
I5
ssS'variables'
p23
(dp24
S'h'
p25
(lp26
I0
aS'FLOAT'
p27
aI0
aI16
asS't'
p28
(lp29
I0
ag27
aI0
aI20
asS't20'
p30
(lp31
I0
ag27
aI0
aI4
asS'x'
p32
(lp33
I0
ag27
aI0
aI0
asS't23'
p34
(lp35
I0
ag27
aI0
aI8
asS't24'
p36
(lp37
I0
ag27
aI0
aI12
assS'sizevars'
p38
(dp39
S't42'
p40
(lp41
I0
aS'BOOL'
p42
aI0
asS't50'
p43
(lp44
I0
ag27
aI0
asg25
(lp45
I0
ag27
aI0
asS't61'
p46
(lp47
I0
ag42
aI0
asS't66'
p48
(lp49
I0
ag27
aI0
asS't47'
p50
(lp51
I0
ag27
aI0
asS't54'
p52
(lp53
I0
ag27
aI0
asg28
(lp54
I0
ag27
aI0
asg30
(lp55
I0
ag27
aI0
asS't36'
p56
(lp57
I0
ag27
aI0
asg32
(lp58
I0
ag27
aI0
asg34
(lp59
I0
ag27
aI0
asg36
(lp60
I0
ag27
aI0
asS't51'
p61
(lp62
I0
ag27
aI0
asS't31'
p63
(lp64
I0
ag42
aI0
assS'classes'
p65
g7
(g8
g9
(dp66
tp67
Rp68
sS'objects'
p69
(dp70
sS'offset'
p71
I24
sS'returnType'
p72
(lp73
sS'argList'
p74
(lp75
g27
asS'uid'
p76
I4
sbasS'main'
p77
(lp78
(isymboltable
SymbolTable
p79
(dp80
g2
I0
sg6
g7
(g8
g9
(dp81
tp82
Rp83
sg18
I1
sg19
g77
sg20
g4
sg21
(dp84
I4
I0
ssg23
(dp85
g32
(lp86
I0
ag27
aI0
aI0
assg38
(dp87
g32
(lp88
I0
ag27
aI0
assg65
g7
(g8
g9
(dp89
tp90
Rp91
sg69
(dp92
sg71
I4
sg72
(lp93
sg74
(lp94
sg76
I8
sbasS'func'
p95
(lp96
(isymboltable
SymbolTable
p97
(dp98
g2
I0
sg6
g7
(g8
g9
(dp99
tp100
Rp101
sg18
I7
sg19
g95
sg20
g4
sg21
(dp102
I4
I0
sI8
I1
sI12
I2
sI16
I3
sI20
I4
sI24
I5
sI28
I6
ssg23
(dp103
S't4'
p104
(lp105
I0
ag27
aI0
aI16
asS't5'
p106
(lp107
I0
ag27
aI0
aI20
asS't2'
p108
(lp109
I0
ag27
aI0
aI8
asS't3'
p110
(lp111
I0
ag27
aI0
aI12
asS't1'
p112
(lp113
I0
ag27
aI0
aI4
asg32
(lp114
I0
ag27
aI0
aI0
asS'k'
p115
(lp116
I0
ag27
aI0
aI24
assg38
(dp117
g104
(lp118
I0
ag27
aI0
asg106
(lp119
I0
ag27
aI0
asg108
(lp120
I0
ag27
aI0
asg110
(lp121
I0
ag27
aI0
asg112
(lp122
I0
ag27
aI0
asg32
(lp123
I0
ag27
aI0
asg115
(lp124
I0
ag27
aI0
assg65
g7
(g8
g9
(dp125
tp126
Rp127
sg69
(dp128
sg71
I28
sg72
(lp129
g27
asg74
(lp130
g27
asg76
I2
sbasS'derivFunc'
p131
(lp132
(isymboltable
SymbolTable
p133
(dp134
g2
I0
sg6
g7
(g8
g9
(dp135
tp136
Rp137
sg18
I6
sg19
g131
sg20
g4
sg21
(dp138
I4
I0
sI8
I1
sI12
I2
sI16
I3
sI20
I4
sI24
I5
ssg23
(dp139
g115
(lp140
I0
ag27
aI0
aI20
asS't10'
p141
(lp142
I0
ag27
aI0
aI4
asS't11'
p143
(lp144
I0
ag27
aI0
aI8
asS't12'
p145
(lp146
I0
ag27
aI0
aI12
asS't13'
p147
(lp148
I0
ag27
aI0
aI16
asg32
(lp149
I0
ag27
aI0
aI0
assg38
(dp150
g115
(lp151
I0
ag27
aI0
asg141
(lp152
I0
ag27
aI0
asg143
(lp153
I0
ag27
aI0
asg145
(lp154
I0
ag27
aI0
asg147
(lp155
I0
ag27
aI0
asg32
(lp156
I0
ag27
aI0
assg65
g7
(g8
g9
(dp157
tp158
Rp159
sg69
(dp160
sg71
I24
sg72
(lp161
g27
asg74
(lp162
g27
asg76
I3
sbastp163
Rp164
sg18
I0
sg19
S'object'
p165
sg20
g0
sg21
(dp166
sg23
(dp167
sg38
(dp168
sg65
g7
(g8
g9
(dp169
tp170
Rp171
sg69
(dp172
sg71
I0
sg72
Nsg74
(lp173
sg76
I1
sbsg6
g7
(g8
g9
(dp174
tp175
Rp176
sg18
I0
sg19
S'root'
p177
sg20
Nsg21
(dp178
sg23
(dp179
sg38
(dp180
sg65
g7
(g8
g9
(dp181
tp182
Rp183
sg69
(dp184
sg71
I0
sg72
Nsg74
g173
sg76
I0
sb.