(isymboltable
SymbolTable
p0
(dp1
S'size'
p2
I0
sS'singletonObject'
p3
(isymboltable
SymbolTable
p4
(dp5
g2
I0
sS'functions'
p6
ccopy_reg
_reconstructor
p7
(csymboltable
Dictlist
p8
c__builtin__
dict
p9
(dp10
S'main'
p11
(lp12
(isymboltable
SymbolTable
p13
(dp14
g2
I0
sg6
g7
(g8
g9
(dp15
tp16
Rp17
sS'itemcount'
p18
I0
sS'name'
p19
g11
sS'parent'
p20
g4
sS'offsetmap'
p21
(dp22
sS'variables'
p23
(dp24
sS'sizevars'
p25
(dp26
sS'classes'
p27
g7
(g8
g9
(dp28
tp29
Rp30
sS'objects'
p31
(dp32
sS'offset'
p33
I0
sS'returnType'
p34
(lp35
sS'argList'
p36
(lp37
sS'uid'
p38
I3
sbasS'scana'
p39
(lp40
(isymboltable
SymbolTable
p41
(dp42
g2
I0
sg6
g7
(g8
g9
(dp43
tp44
Rp45
sg18
I4
sg19
g39
sg20
g4
sg21
(dp46
I8
I1
sI12
I2
sI4
I0
sI16
I3
ssg23
(dp47
S'i'
p48
(lp49
I0
aS'INT'
p50
aI0
aI4
asS'j'
p51
(lp52
I0
ag50
aI0
aI8
asS't'
p53
(lp54
I0
ag50
aI0
aI12
asS'size'
p55
(lp56
I0
ag50
aI0
aI0
assg25
(dp57
g48
(lp58
I0
ag50
aI0
asg51
(lp59
I0
ag50
aI0
asg53
(lp60
I0
ag50
aI0
asg55
(lp61
I0
ag50
aI0
assg27
g7
(g8
g9
(dp62
tp63
Rp64
sg31
(dp65
sg33
I16
sg34
(lp66
sg36
(lp67
g50
asg38
I2
sbastp68
Rp69
sg18
I3
sg19
S'object'
p70
sg20
g0
sg21
(dp71
I200
I1
sI300
I2
sI100
I0
ssg23
(dp72
S'a'
p73
(lp74
I0
aS'ARRAYARRAYINT'
p75
aI5
aI5
aI0
asS'c'
p76
(lp77
I0
aS'ARRAYARRAYINT'
p78
aI5
aI5
aI200
asS'b'
p79
(lp80
I0
aS'ARRAYARRAYINT'
p81
aI5
aI5
aI100
assg25
(dp82
g73
(lp83
I0
ag75
aI5
aI5
asg76
(lp84
I0
ag78
aI5
aI5
asg79
(lp85
I0
ag81
aI5
aI5
assg27
g7
(g8
g9
(dp86
tp87
Rp88
sg31
(dp89
sg33
I300
sg34
Nsg36
(lp90
sg38
I1
sbsg6
g7
(g8
g9
(dp91
tp92
Rp93
sg18
I0
sg19
S'root'
p94
sg20
Nsg21
(dp95
sg23
(dp96
sg25
(dp97
sg27
g7
(g8
g9
(dp98
tp99
Rp100
sg31
(dp101
sg33
I0
sg34
Nsg36
g90
sg38
I0
sb.