(isymboltable
SymbolTable
p0
(dp1
S'listdict'
p2
(dp3
sS'functions'
p4
ccopy_reg
_reconstructor
p5
(csymboltable
Dictlist
p6
c__builtin__
dict
p7
(dp8
tp9
Rp10
sS'itemcount'
p11
I0
sS'name'
p12
S'root'
p13
sS'objects'
p14
(dp15
sS'offsetmap'
p16
(dp17
sS'variables'
p18
(dp19
sS'size'
p20
I0
sS'sizevars'
p21
(dp22
sS'classes'
p23
g5
(g6
g7
(dp24
tp25
Rp26
sS'parent'
p27
NsS'singletonObject'
p28
(isymboltable
SymbolTable
p29
(dp30
g2
(dp31
S'f2'
p32
I3
ssg4
g5
(g6
g7
(dp33
S'main'
p34
(lp35
(isymboltable
SymbolTable
p36
(dp37
g2
(dp38
S'f'
p39
I3
ssg4
g5
(g6
g7
(dp40
tp41
Rp42
sg11
I4
sg12
g34
sg14
(dp43
sg16
(dp44
I40
I0
sI50
I1
sI58
I3
sI54
I2
ssg18
(dp45
S'a'
p46
(lp47
I0
aS'INT'
p48
aI0
aI54
asS'f1'
p49
(lp50
I0
aS'ARRAYINT'
p51
aI10
aI0
asS't23'
p52
(lp53
I0
aS'INT'
p54
aI0
aI50
asg39
(lp55
I0
aS'LIST INT'
p56
aI0
aI40
assg20
I0
sg21
(dp57
g46
(lp58
I0
ag48
aI0
asg49
(lp59
I0
ag51
aI10
asg52
(lp60
I0
ag54
aI0
asg39
(lp61
I0
ag56
aI0
assg23
g5
(g6
g7
(dp62
tp63
Rp64
sg27
g29
sS'offset'
p65
I58
sS'returnType'
p66
(lp67
sS'argList'
p68
(lp69
sS'uid'
p70
I3
sbasS't'
p71
(lp72
(isymboltable
SymbolTable
p73
(dp74
g2
(dp75
sg4
g5
(g6
g7
(dp76
tp77
Rp78
sg11
I2
sg12
g71
sg14
(dp79
sg16
(dp80
I8
I1
sI4
I0
ssg18
(dp81
g46
(lp82
I0
ag48
aI0
aI0
asS'b'
p83
(lp84
I0
ag48
aI0
aI4
assg20
I0
sg21
(dp85
g46
(lp86
I0
ag48
aI0
asg83
(lp87
I0
ag48
aI0
assg23
g5
(g6
g7
(dp88
tp89
Rp90
sg27
g29
sg65
I8
sg66
(lp91
sg68
(lp92
g48
ag48
asg70
I2
sbastp93
Rp94
sg11
I1
sg12
S'object'
p95
sg14
(dp96
sg16
(dp97
I10
I0
ssg18
(dp98
g32
(lp99
I0
aS'LIST INT'
p100
aI0
aI0
assg20
I0
sg21
(dp101
g32
(lp102
I0
ag100
aI0
assg23
g5
(g6
g7
(dp103
tp104
Rp105
sg27
g0
sg65
I10
sg66
Nsg68
(lp106
sg70
I1
sbsg65
I0
sg66
Nsg68
g106
sg70
I0
sb.