(isymboltable
SymbolTable
p0
(dp1
S'listdict'
p2
(dp3
sS'functions'
p4
ccopy_reg
_reconstructor
p5
(csymboltable
Dictlist
p6
c__builtin__
dict
p7
(dp8
tp9
Rp10
sS'itemcount'
p11
I0
sS'name'
p12
S'root'
p13
sS'objects'
p14
(dp15
sS'offsetmap'
p16
(dp17
sS'variables'
p18
(dp19
sS'size'
p20
I0
sS'sizevars'
p21
(dp22
sS'classes'
p23
g5
(g6
g7
(dp24
tp25
Rp26
sS'parent'
p27
NsS'singletonObject'
p28
(isymboltable
SymbolTable
p29
(dp30
g2
(dp31
S'f2'
p32
I0
sS'f3'
p33
(dp34
S'1'
p35
I2
sS'0'
p36
I0
sS'3'
p37
I0
sS'2'
p38
I0
sS'5'
p39
I0
sS'4'
p40
I0
sS'7'
p41
I0
sS'6'
p42
I0
sS'9'
p43
I0
sS'8'
p44
I0
sssg4
g5
(g6
g7
(dp45
S'main'
p46
(lp47
(isymboltable
SymbolTable
p48
(dp49
g2
(dp50
S'f'
p51
I4
ssg4
g5
(g6
g7
(dp52
tp53
Rp54
sg11
I6
sg12
g46
sg14
(dp55
sg16
(dp56
I66
I5
sI40
I0
sI50
I1
sI54
I2
sI58
I3
sI62
I4
ssg18
(dp57
S'a'
p58
(lp59
I0
aS'INT'
p60
aI0
aI62
asS'f1'
p61
(lp62
I0
aS'ARRAYINT'
p63
aI10
aI0
asg51
(lp64
I0
aS'LIST@INT'
p65
aI0
aI40
asS't32'
p66
(lp67
I0
ag60
aI0
aI50
asS't33'
p68
(lp69
I0
ag60
aI0
aI58
asS't31'
p70
(lp71
I0
aS'INT'
p72
aI0
aI54
assg20
I0
sg21
(dp73
g58
(lp74
I0
ag60
aI0
asg61
(lp75
I0
ag63
aI10
asg51
(lp76
I0
ag65
aI0
asg66
(lp77
I0
ag60
aI0
asg68
(lp78
I0
ag60
aI0
asg70
(lp79
I0
ag72
aI0
assg23
g5
(g6
g7
(dp80
tp81
Rp82
sg27
g29
sS'offset'
p83
I66
sS'returnType'
p84
(lp85
sS'argList'
p86
(lp87
sS'uid'
p88
I2
sbastp89
Rp90
sg11
I2
sg12
S'object'
p91
sg14
(dp92
sg16
(dp93
I10
I0
sI110
I1
ssg18
(dp94
g32
(lp95
I0
aS'LIST@INT'
p96
aI0
aI0
asg33
(lp97
I0
aS'LIST@LIST@INT'
p98
aI10
aI10
assg20
I0
sg21
(dp99
g32
(lp100
I0
ag96
aI0
asg33
(lp101
I0
ag98
aI10
assg23
g5
(g6
g7
(dp102
tp103
Rp104
sg27
g0
sg83
I110
sg84
Nsg86
(lp105
sg88
I1
sbsg83
I0
sg84
Nsg86
g105
sg88
I0
sb.