(isymboltable
SymbolTable
p0
(dp1
S'size'
p2
I0
sS'singletonObject'
p3
(isymboltable
SymbolTable
p4
(dp5
g2
I0
sS'functions'
p6
ccopy_reg
_reconstructor
p7
(csymboltable
Dictlist
p8
c__builtin__
dict
p9
(dp10
S'print'
p11
(lp12
(isymboltable
SymbolTable
p13
(dp14
g2
I0
sg6
g7
(g8
g9
(dp15
tp16
Rp17
sS'itemcount'
p18
I2
sS'name'
p19
g11
sS'parent'
p20
g4
sS'offsetmap'
p21
(dp22
I8
I1
sI4
I0
ssS'variables'
p23
(dp24
S'i'
p25
(lp26
I0
aS'INT'
p27
aI0
aI4
asS'size'
p28
(lp29
I0
ag27
aI0
aI0
assS'sizevars'
p30
(dp31
g25
(lp32
I0
ag27
aI0
asS't121'
p33
(lp34
I0
aS'INT'
p35
aI0
asg28
(lp36
I0
ag27
aI0
assS'classes'
p37
g7
(g8
g9
(dp38
tp39
Rp40
sS'objects'
p41
(dp42
sS'offset'
p43
I8
sS'returnType'
p44
(lp45
sS'argList'
p46
(lp47
g27
asS'uid'
p48
I7
sbasS'scan'
p49
(lp50
(isymboltable
SymbolTable
p51
(dp52
g2
I0
sg6
g7
(g8
g9
(dp53
tp54
Rp55
sg18
I3
sg19
g49
sg20
g4
sg21
(dp56
I8
I1
sI12
I2
sI4
I0
ssg23
(dp57
g25
(lp58
I0
ag27
aI0
aI4
asS't'
p59
(lp60
I0
ag27
aI0
aI8
asS'size'
p61
(lp62
I0
ag27
aI0
aI0
assg30
(dp63
g25
(lp64
I0
ag27
aI0
asS't140'
p65
(lp66
I0
aS'INT'
p67
aI0
asg59
(lp68
I0
ag27
aI0
asg61
(lp69
I0
ag27
aI0
assg37
g7
(g8
g9
(dp70
tp71
Rp72
sg41
(dp73
sg43
I12
sg44
(lp74
sg46
(lp75
g27
asg48
I9
sbasS'main'
p76
(lp77
(isymboltable
SymbolTable
p78
(dp79
g2
I0
sg6
g7
(g8
g9
(dp80
tp81
Rp82
sg18
I0
sg19
g76
sg20
g4
sg21
(dp83
sg23
(dp84
sg30
(dp85
sg37
g7
(g8
g9
(dp86
tp87
Rp88
sg41
(dp89
sg43
I0
sg44
(lp90
sg46
(lp91
sg48
I11
sbasS'quickSort'
p92
(lp93
(isymboltable
SymbolTable
p94
(dp95
g2
I0
sg6
g7
(g8
g9
(dp96
tp97
Rp98
sg18
I2
sg19
g92
sg20
g4
sg21
(dp99
I8
I1
sI4
I0
ssg23
(dp100
S'high'
p101
(lp102
I0
ag27
aI0
aI4
asS'low'
p103
(lp104
I0
ag27
aI0
aI0
assg30
(dp105
S't101'
p106
(lp107
I0
ag27
aI0
asg101
(lp108
I0
ag27
aI0
asS't98'
p109
(lp110
I0
ag27
aI0
asg103
(lp111
I0
ag27
aI0
asS't88'
p112
(lp113
I0
aS'BOOL'
p114
aI0
asS't95'
p115
(lp116
I0
ag27
aI0
asS'pi'
p117
(lp118
I0
ag27
aI0
asS'u'
p119
(lp120
I0
ag27
aI0
asg59
(lp121
I0
ag27
aI0
assg37
g7
(g8
g9
(dp122
tp123
Rp124
sg41
(dp125
sg43
I8
sg44
(lp126
sg46
(lp127
g27
ag27
asg48
I5
sbasS'partition'
p128
(lp129
(isymboltable
SymbolTable
p130
(dp131
g2
I0
sg6
g7
(g8
g9
(dp132
tp133
Rp134
sg18
I16
sg19
g128
sg20
g4
sg21
(dp135
I32
I7
sI48
I11
sI4
I0
sI8
I1
sI44
I10
sI12
I2
sI64
I15
sI60
I14
sI16
I3
sI40
I9
sI20
I4
sI56
I13
sI24
I5
sI36
I8
sI28
I6
sI52
I12
ssg23
(dp136
g25
(lp137
I0
ag27
aI0
aI20
asS't7'
p138
(lp139
I0
ag27
aI0
aI16
asS't67'
p140
(lp141
I0
aS'INT'
p142
aI0
aI48
asS'j'
p143
(lp144
I0
ag27
aI0
aI24
asS't3'
p145
(lp146
I0
aS'INT'
p147
aI0
aI8
asS't57'
p148
(lp149
I0
ag27
aI0
aI36
asS'high'
p150
(lp151
I0
ag27
aI0
aI4
asS'till'
p152
(lp153
I0
ag27
aI0
aI32
asS't71'
p154
(lp155
I0
aS'INT'
p156
aI0
aI52
asS'low'
p157
(lp158
I0
ag27
aI0
aI0
asS't12'
p159
(lp160
I0
ag27
aI0
aI28
asS't64'
p161
(lp162
I0
ag27
aI0
aI44
asS'pivot'
p163
(lp164
I0
ag27
aI0
aI12
asS't81'
p165
(lp166
I0
ag27
aI0
aI60
asS't60'
p167
(lp168
I0
aS'INT'
p169
aI0
aI40
asS't77'
p170
(lp171
I0
aS'INT'
p172
aI0
aI56
assg30
(dp173
S't49'
p174
(lp175
I0
aS'INT'
p176
aI0
asS't43'
p177
(lp178
I0
aS'INT'
p179
aI0
asg161
(lp180
I0
ag27
aI0
asg140
(lp181
I0
ag142
aI0
asg167
(lp182
I0
ag169
aI0
asg150
(lp183
I0
ag27
aI0
asg163
(lp184
I0
ag27
aI0
asg165
(lp185
I0
ag27
aI0
asg152
(lp186
I0
ag27
aI0
asg154
(lp187
I0
ag156
aI0
asg157
(lp188
I0
ag27
aI0
asg159
(lp189
I0
ag27
aI0
asS't39'
p190
(lp191
I0
aS'INT'
p192
aI0
asS't33'
p193
(lp194
I0
aS'INT'
p195
aI0
asg170
(lp196
I0
ag172
aI0
asg148
(lp197
I0
ag27
aI0
asS'temp'
p198
(lp199
I0
ag27
aI0
asg25
(lp200
I0
ag27
aI0
asg138
(lp201
I0
ag27
aI0
asg143
(lp202
I0
ag27
aI0
asg145
(lp203
I0
ag147
aI0
asS't28'
p204
(lp205
I0
ag27
aI0
asS't21'
p206
(lp207
I0
aS'INT'
p208
aI0
asS't25'
p209
(lp210
I0
ag114
aI0
assg37
g7
(g8
g9
(dp211
tp212
Rp213
sg41
(dp214
sg43
I64
sg44
(lp215
g27
asg46
(lp216
g27
ag27
asg48
I2
sbastp217
Rp218
sg18
I1
sg19
S'object'
p219
sg20
g0
sg21
(dp220
I40
I0
ssg23
(dp221
S'a'
p222
(lp223
I0
aS'ARRAYINT'
p224
aI10
aI0
assg30
(dp225
g222
(lp226
I0
ag224
aI10
assg37
g7
(g8
g9
(dp227
tp228
Rp229
sg41
(dp230
sg43
I40
sg44
Nsg46
(lp231
sg48
I1
sbsg6
g7
(g8
g9
(dp232
tp233
Rp234
sg18
I0
sg19
S'root'
p235
sg20
Nsg21
(dp236
sg23
(dp237
sg30
(dp238
sg37
g7
(g8
g9
(dp239
tp240
Rp241
sg41
(dp242
sg43
I0
sg44
Nsg46
g231
sg48
I0
sb.