(isymboltable
SymbolTable
p0
(dp1
S'listdict'
p2
(dp3
sS'functions'
p4
ccopy_reg
_reconstructor
p5
(csymboltable
Dictlist
p6
c__builtin__
dict
p7
(dp8
tp9
Rp10
sS'itemcount'
p11
I0
sS'name'
p12
S'root'
p13
sS'objects'
p14
(dp15
sS'offsetmap'
p16
(dp17
sS'variables'
p18
(dp19
sS'size'
p20
I0
sS'sizevars'
p21
(dp22
sS'classes'
p23
g5
(g6
g7
(dp24
S'node'
p25
(lp26
(isymboltable
SymbolTable
p27
(dp28
g2
(dp29
sg4
g5
(g6
g7
(dp30
tp31
Rp32
sg11
I2
sg12
g25
sg14
(dp33
sg16
(dp34
I8
I1
sI4
I0
ssg18
(dp35
S'y'
p36
(lp37
I0
aS'INT'
p38
aI0
aI4
asS'x'
p39
(lp40
I0
ag38
aI0
aI0
assg20
I0
sg21
(dp41
g36
(lp42
I0
ag38
aI0
asg39
(lp43
I0
ag38
aI0
assg23
g5
(g6
g7
(dp44
tp45
Rp46
sS'parent'
p47
g0
sS'offset'
p48
I8
sS'returnType'
p49
NsS'argList'
p50
(lp51
sS'uid'
p52
I3
sbastp53
Rp54
sg47
NsS'singletonObject'
p55
(isymboltable
SymbolTable
p56
(dp57
g2
(dp58
sg4
g5
(g6
g7
(dp59
S'main'
p60
(lp61
(isymboltable
SymbolTable
p62
(dp63
g2
(dp64
sg4
g5
(g6
g7
(dp65
tp66
Rp67
sg11
I2
sg12
g60
sg14
(dp68
sg16
(dp69
I8
I1
sI4
I0
ssg18
(dp70
S'a'
p71
(lp72
I0
ag38
aI0
aI4
asS'b'
p73
(lp74
I0
ag38
aI0
aI0
assg20
I0
sg21
(dp75
g71
(lp76
I0
ag38
aI0
asg73
(lp77
I0
ag38
aI0
assg23
g5
(g6
g7
(dp78
tp79
Rp80
sg47
g56
sg48
I8
sg49
(lp81
sg50
(lp82
sg52
I2
sbastp83
Rp84
sg11
I0
sg12
S'object'
p85
sg14
(dp86
sg16
(dp87
sg18
(dp88
sg20
I0
sg21
(dp89
sg23
g5
(g6
g7
(dp90
tp91
Rp92
sg47
g0
sg48
I0
sg49
Nsg50
(lp93
sg52
I1
sbsg48
I0
sg49
Nsg50
g93
sg52
I0
sb.