(isymboltable
SymbolTable
p0
(dp1
S'listdict'
p2
(dp3
sS'functions'
p4
ccopy_reg
_reconstructor
p5
(csymboltable
Dictlist
p6
c__builtin__
dict
p7
(dp8
tp9
Rp10
sS'itemcount'
p11
I0
sS'name'
p12
S'root'
p13
sS'objects'
p14
(dp15
sS'offsetmap'
p16
(dp17
sS'variables'
p18
(dp19
sS'size'
p20
I0
sS'sizevars'
p21
(dp22
sS'classes'
p23
g5
(g6
g7
(dp24
tp25
Rp26
sS'parent'
p27
NsS'singletonObject'
p28
(isymboltable
SymbolTable
p29
(dp30
g2
(dp31
sg4
g5
(g6
g7
(dp32
S'main'
p33
(lp34
(isymboltable
SymbolTable
p35
(dp36
g2
(dp37
sg4
g5
(g6
g7
(dp38
tp39
Rp40
sg11
I3
sg12
g33
sg14
(dp41
sg16
(dp42
I8
I1
sI12
I2
sI4
I0
ssg18
(dp43
S'k'
p44
(lp45
I0
aS'INT'
p46
aI0
aI8
asS'm'
p47
(lp48
I0
ag46
aI0
aI0
asS'n'
p49
(lp50
I0
ag46
aI0
aI4
assg20
I0
sg21
(dp51
g44
(lp52
I0
ag46
aI0
asg47
(lp53
I0
ag46
aI0
asS't78'
p54
(lp55
I0
ag46
aI0
asg49
(lp56
I0
ag46
aI0
assg23
g5
(g6
g7
(dp57
tp58
Rp59
sg27
g29
sS'offset'
p60
I12
sS'returnType'
p61
(lp62
sS'argList'
p63
(lp64
sS'uid'
p65
I5
sbasS'acker'
p66
(lp67
(isymboltable
SymbolTable
p68
(dp69
g2
(dp70
sg4
g5
(g6
g7
(dp71
tp72
Rp73
sg11
I9
sg12
g66
sg14
(dp74
sg16
(dp75
I32
I7
sI4
I0
sI8
I1
sI12
I2
sI16
I3
sI20
I4
sI24
I5
sI36
I8
sI28
I6
ssg18
(dp76
S't48'
p77
(lp78
I0
ag46
aI0
aI28
asS't55'
p79
(lp80
I0
ag46
aI0
aI32
asg47
(lp81
I0
ag46
aI0
aI0
asS'l'
p82
(lp83
I0
ag46
aI0
aI16
asS't45'
p84
(lp85
I0
ag46
aI0
aI24
asg49
(lp86
I0
ag46
aI0
aI4
asS't'
p87
(lp88
I0
ag46
aI0
aI8
asS't38'
p89
(lp90
I0
ag46
aI0
aI20
asS'z'
p91
(lp92
I0
ag46
aI0
aI12
assg20
I0
sg21
(dp93
g77
(lp94
I0
ag46
aI0
asg79
(lp95
I0
ag46
aI0
asS't25'
p96
(lp97
I0
ag46
aI0
asg47
(lp98
I0
ag46
aI0
asg82
(lp99
I0
ag46
aI0
asg84
(lp100
I0
ag46
aI0
asg49
(lp101
I0
ag46
aI0
asS't14'
p102
(lp103
I0
ag46
aI0
asg87
(lp104
I0
ag46
aI0
asg89
(lp105
I0
ag46
aI0
asS't13'
p106
(lp107
I0
aS'BOOL'
p108
aI0
asg91
(lp109
I0
ag46
aI0
asS't32'
p110
(lp111
I0
ag46
aI0
asS't24'
p112
(lp113
I0
ag108
aI0
assg23
g5
(g6
g7
(dp114
tp115
Rp116
sg27
g29
sg60
I36
sg61
(lp117
g46
asg63
(lp118
g46
ag46
asg65
I2
sbastp119
Rp120
sg11
I0
sg12
S'object'
p121
sg14
(dp122
sg16
(dp123
sg18
(dp124
sg20
I0
sg21
(dp125
sg23
g5
(g6
g7
(dp126
tp127
Rp128
sg27
g0
sg60
I0
sg61
Nsg63
(lp129
sg65
I1
sbsg60
I0
sg61
Nsg63
g129
sg65
I0
sb.