(isymboltable
SymbolTable
p0
(dp1
S'size'
p2
I0
sS'singletonObject'
p3
(isymboltable
SymbolTable
p4
(dp5
g2
I0
sS'functions'
p6
ccopy_reg
_reconstructor
p7
(csymboltable
Dictlist
p8
c__builtin__
dict
p9
(dp10
<<<<<<< HEAD
S'print'
=======
S'main'
>>>>>>> fef380b050b04ca0d9de1ff4254417216feae35d
p11
(lp12
(isymboltable
SymbolTable
p13
(dp14
g2
I0
sg6
g7
(g8
g9
(dp15
tp16
Rp17
sS'itemcount'
p18
<<<<<<< HEAD
I2
=======
I1
>>>>>>> fef380b050b04ca0d9de1ff4254417216feae35d
sS'name'
p19
g11
sS'parent'
p20
g4
sS'offsetmap'
p21
(dp22
<<<<<<< HEAD
I8
I1
sI4
=======
I4
>>>>>>> fef380b050b04ca0d9de1ff4254417216feae35d
I0
ssS'variables'
p23
(dp24
<<<<<<< HEAD
S'i'
=======
S'a'
>>>>>>> fef380b050b04ca0d9de1ff4254417216feae35d
p25
(lp26
I0
aS'INT'
p27
aI0
<<<<<<< HEAD
aI4
asS'size'
p28
(lp29
I0
ag27
aI0
aI0
assS'sizevars'
p30
(dp31
g25
(lp32
I0
ag27
aI0
asS't122'
p33
(lp34
I0
ag27
aI0
asS't121'
p35
(lp36
I0
aS'INT'
p37
aI0
asg28
(lp38
I0
ag27
aI0
assS'classes'
p39
g7
(g8
g9
(dp40
tp41
Rp42
sS'objects'
p43
(dp44
sS'offset'
p45
I8
sS'returnType'
p46
(lp47
sS'argList'
p48
(lp49
g27
asS'uid'
p50
I7
sbasS'scan'
p51
(lp52
(isymboltable
SymbolTable
p53
(dp54
g2
I0
sg6
g7
(g8
g9
(dp55
tp56
Rp57
sg18
I3
sg19
g51
sg20
g4
sg21
(dp58
I8
I1
sI12
I2
sI4
I0
ssg23
(dp59
g25
(lp60
I0
ag27
aI0
aI4
asS't'
p61
(lp62
I0
ag27
aI0
aI8
asS'size'
p63
(lp64
I0
ag27
aI0
aI0
assg30
(dp65
g25
(lp66
I0
ag27
aI0
asS't140'
p67
(lp68
I0
aS'INT'
p69
aI0
asS't141'
p70
(lp71
I0
ag27
aI0
asg61
(lp72
I0
ag27
aI0
asg63
(lp73
I0
ag27
aI0
assg39
g7
(g8
g9
(dp74
tp75
Rp76
sg43
(dp77
sg45
I12
sg46
(lp78
sg48
(lp79
g27
asg50
I9
sbasS'main'
p80
(lp81
(isymboltable
SymbolTable
p82
(dp83
=======
aI0
assS'sizevars'
p28
(dp29
g25
(lp30
I0
ag27
aI0
assS'classes'
p31
g7
(g8
g9
(dp32
tp33
Rp34
sS'objects'
p35
(dp36
sS'offset'
p37
I4
sS'returnType'
p38
(lp39
sS'argList'
p40
(lp41
sS'uid'
p42
I3
sbasS't'
p43
(lp44
(isymboltable
SymbolTable
p45
(dp46
>>>>>>> fef380b050b04ca0d9de1ff4254417216feae35d
g2
I0
sg6
g7
(g8
g9
<<<<<<< HEAD
(dp84
tp85
Rp86
sg18
I2
sg19
g80
sg20
g4
sg21
(dp87
I8
I1
sI4
I0
ssg23
(dp88
S'filep'
p89
(lp90
I0
ag27
aI0
aI0
asS't155'
p91
(lp92
I0
ag27
aI0
aI4
assg30
(dp93
g89
(lp94
I0
ag27
aI0
asg91
(lp95
I0
ag27
aI0
assg39
g7
(g8
g9
(dp96
tp97
Rp98
sg43
(dp99
sg45
I8
sg46
(lp100
sg48
(lp101
sg50
I11
sbasS'quickSort'
p102
(lp103
(isymboltable
SymbolTable
p104
(dp105
g2
I0
sg6
g7
(g8
g9
(dp106
tp107
Rp108
sg18
I2
sg19
g102
sg20
g4
sg21
(dp109
I8
=======
(dp47
tp48
Rp49
sg18
I2
sg19
g43
sg20
g4
sg21
(dp50
I8
>>>>>>> fef380b050b04ca0d9de1ff4254417216feae35d
I1
sI4
I0
ssg23
<<<<<<< HEAD
(dp110
S'high'
p111
(lp112
=======
(dp51
g25
(lp52
I0
ag27
aI0
aI0
asS'b'
p53
(lp54
>>>>>>> fef380b050b04ca0d9de1ff4254417216feae35d
I0
ag27
aI0
aI4
<<<<<<< HEAD
asS'low'
p113
(lp114
I0
ag27
aI0
aI0
assg30
(dp115
S't101'
p116
(lp117
I0
ag27
aI0
asg111
(lp118
I0
ag27
aI0
asS't98'
p119
(lp120
I0
ag27
aI0
asg113
(lp121
I0
ag27
aI0
asS't88'
p122
(lp123
I0
aS'BOOL'
p124
aI0
asS't95'
p125
(lp126
I0
ag27
aI0
asS'pi'
p127
(lp128
I0
ag27
aI0
asS'u'
p129
(lp130
I0
ag27
aI0
asg61
(lp131
I0
ag27
aI0
assg39
g7
(g8
g9
(dp132
tp133
Rp134
sg43
(dp135
sg45
I8
sg46
(lp136
sg48
(lp137
g27
ag27
asg50
I5
sbasS'partition'
p138
(lp139
(isymboltable
SymbolTable
p140
(dp141
g2
I0
sg6
g7
(g8
g9
(dp142
tp143
Rp144
sg18
I21
sg19
g138
sg20
g4
sg21
(dp145
I32
I7
sI48
I11
sI4
I0
sI68
I16
sI80
I19
sI8
I1
sI44
I10
sI12
I2
sI84
I20
sI64
I15
sI60
I14
sI16
I3
sI40
I9
sI20
I4
sI76
I18
sI56
I13
sI24
I5
sI36
I8
sI28
I6
sI72
I17
sI52
I12
ssg23
(dp146
S't72'
p147
(lp148
I0
ag27
aI0
aI64
asS't68'
p149
(lp150
I0
ag27
aI0
aI56
asS't81'
p151
(lp152
I0
ag27
aI0
aI80
asg25
(lp153
I0
ag27
aI0
aI24
asS't7'
p154
(lp155
I0
ag27
aI0
aI20
asS't4'
p156
(lp157
I0
ag27
aI0
aI8
asS'j'
p158
(lp159
I0
ag27
aI0
aI28
asS't61'
p160
(lp161
I0
ag27
aI0
aI44
asS't3'
p162
(lp163
I0
aS'INT'
p164
aI0
aI12
asS't57'
p165
(lp166
I0
ag27
aI0
aI40
asS'high'
p167
(lp168
I0
ag27
aI0
aI4
asS'till'
p169
(lp170
I0
ag27
aI0
aI36
asS't71'
p171
(lp172
I0
aS'INT'
p173
aI0
aI68
asS'low'
p174
(lp175
I0
ag27
aI0
aI0
asS't12'
p176
(lp177
I0
ag27
aI0
aI32
asS't64'
p178
(lp179
I0
ag27
aI0
aI52
asS'pivot'
p180
(lp181
I0
ag27
aI0
aI16
asS't78'
p182
(lp183
I0
ag27
aI0
aI72
asS't67'
p184
(lp185
I0
aS'INT'
p186
aI0
aI60
asS't60'
p187
(lp188
I0
aS'INT'
p189
aI0
aI48
asS't77'
p190
(lp191
I0
aS'INT'
p192
aI0
aI76
assg30
(dp193
S't49'
p194
(lp195
I0
aS'INT'
p196
aI0
asg149
(lp197
I0
ag27
aI0
asS't43'
p198
(lp199
I0
aS'INT'
p200
aI0
asg178
(lp201
I0
ag27
aI0
asg184
(lp202
I0
ag186
aI0
asS't40'
p203
(lp204
I0
ag27
aI0
asg160
(lp205
I0
ag27
aI0
asg187
(lp206
I0
ag189
aI0
asS't44'
p207
(lp208
I0
ag27
aI0
asg167
(lp209
I0
ag27
aI0
asg180
(lp210
I0
ag27
aI0
asg151
(lp211
I0
ag27
aI0
asg147
(lp212
I0
ag27
aI0
asg169
(lp213
I0
ag27
aI0
asg171
(lp214
I0
ag173
aI0
asg174
(lp215
I0
ag27
aI0
asg176
(lp216
I0
ag27
aI0
asS't39'
p217
(lp218
I0
aS'INT'
p219
aI0
asS't34'
p220
(lp221
I0
ag27
aI0
asS't33'
p222
(lp223
I0
aS'INT'
p224
aI0
asg190
(lp225
I0
ag192
aI0
asS't50'
p226
(lp227
I0
ag27
aI0
asg165
(lp228
I0
ag27
aI0
asg182
(lp229
I0
ag27
aI0
asS'temp'
p230
(lp231
I0
ag27
aI0
asg25
(lp232
I0
ag27
aI0
asg154
(lp233
I0
ag27
aI0
asg156
(lp234
I0
ag27
aI0
asg158
(lp235
I0
ag27
aI0
asg162
(lp236
I0
ag164
aI0
asS't28'
p237
(lp238
I0
ag27
aI0
asS't21'
p239
(lp240
I0
aS'INT'
p241
aI0
asS't22'
p242
(lp243
I0
ag27
aI0
asS't25'
p244
(lp245
I0
ag124
aI0
assg39
g7
(g8
g9
(dp246
tp247
Rp248
sg43
(dp249
sg45
I84
sg46
(lp250
g27
asg48
(lp251
g27
ag27
asg50
I2
sbastp252
Rp253
=======
assg28
(dp55
g25
(lp56
I0
ag27
aI0
asg53
(lp57
I0
ag27
aI0
assg31
g7
(g8
g9
(dp58
tp59
Rp60
sg35
(dp61
sg37
I8
sg38
(lp62
sg40
(lp63
g27
ag27
asg42
I2
sbastp64
Rp65
>>>>>>> fef380b050b04ca0d9de1ff4254417216feae35d
sg18
I1
sg19
S'object'
<<<<<<< HEAD
p254
sg20
g0
sg21
(dp255
I40
I0
ssg23
(dp256
S'a'
p257
(lp258
I0
aS'ARRAYINT'
p259
aI10
aI0
assg30
(dp260
g257
(lp261
I0
ag259
aI10
assg39
g7
(g8
g9
(dp262
tp263
Rp264
sg43
(dp265
sg45
I40
sg46
Nsg48
(lp266
sg50
=======
p66
sg20
g0
sg21
(dp67
sg23
(dp68
sg28
(dp69
sg31
g7
(g8
g9
(dp70
tp71
Rp72
sg35
(dp73
sg37
I0
sg38
Nsg40
(lp74
sg42
>>>>>>> fef380b050b04ca0d9de1ff4254417216feae35d
I1
sbsg6
g7
(g8
g9
<<<<<<< HEAD
(dp267
tp268
Rp269
=======
(dp75
tp76
Rp77
>>>>>>> fef380b050b04ca0d9de1ff4254417216feae35d
sg18
I0
sg19
S'root'
<<<<<<< HEAD
p270
sg20
Nsg21
(dp271
sg23
(dp272
sg30
(dp273
sg39
g7
(g8
g9
(dp274
tp275
Rp276
sg43
(dp277
sg45
I0
sg46
Nsg48
g266
sg50
=======
p78
sg20
Nsg21
(dp79
sg23
(dp80
sg28
(dp81
sg31
g7
(g8
g9
(dp82
tp83
Rp84
sg35
(dp85
sg37
I0
sg38
Nsg40
g74
sg42
>>>>>>> fef380b050b04ca0d9de1ff4254417216feae35d
I0
sb.