(isymboltable
SymbolTable
p0
(dp1
S'size'
p2
I0
sS'singletonObject'
p3
(isymboltable
SymbolTable
p4
(dp5
g2
I0
sS'functions'
p6
ccopy_reg
_reconstructor
p7
(csymboltable
Dictlist
p8
c__builtin__
dict
p9
(dp10
S'main'
p11
(lp12
(isymboltable
SymbolTable
p13
(dp14
g2
I0
sg6
g7
(g8
g9
(dp15
tp16
Rp17
sS'itemcount'
p18
I1
sS'name'
p19
g11
sS'parent'
p20
g4
sS'offsetmap'
p21
(dp22
I4
I0
ssS'variables'
p23
(dp24
S'a'
p25
(lp26
I0
aS'INT'
p27
aI0
aI0
assS'sizevars'
p28
(dp29
g25
(lp30
I0
ag27
aI0
assS'classes'
p31
g7
(g8
g9
(dp32
tp33
Rp34
sS'objects'
p35
(dp36
sS'offset'
p37
I4
sS'returnType'
p38
(lp39
sS'argList'
p40
(lp41
sS'uid'
p42
I3
sbasS't'
p43
(lp44
(isymboltable
SymbolTable
p45
(dp46
g2
I0
sg6
g7
(g8
g9
(dp47
tp48
Rp49
sg18
I2
sg19
g43
sg20
g4
sg21
(dp50
I8
I1
sI4
I0
ssg23
(dp51
g25
(lp52
I0
ag27
aI0
aI0
asS'b'
p53
(lp54
I0
ag27
aI0
aI4
assg28
(dp55
g25
(lp56
I0
ag27
aI0
asg53
(lp57
I0
ag27
aI0
assg31
g7
(g8
g9
(dp58
tp59
Rp60
sg35
(dp61
sg37
I8
sg38
(lp62
sg40
(lp63
g27
ag27
asg42
I2
sbastp64
Rp65
sg18
I0
sg19
S'object'
p66
sg20
g0
sg21
(dp67
sg23
(dp68
sg28
(dp69
sg31
g7
(g8
g9
(dp70
tp71
Rp72
sg35
(dp73
sg37
I0
sg38
Nsg40
(lp74
sg42
I1
sbsg6
g7
(g8
g9
(dp75
tp76
Rp77
sg18
I0
sg19
S'root'
p78
sg20
Nsg21
(dp79
sg23
(dp80
sg28
(dp81
sg31
g7
(g8
g9
(dp82
tp83
Rp84
sg35
(dp85
sg37
I0
sg38
Nsg40
g74
sg42
I0
sb.