(isymboltable
SymbolTable
p0
(dp1
S'size'
p2
I0
sS'singletonObject'
p3
(isymboltable
SymbolTable
p4
(dp5
g2
I0
sS'functions'
p6
ccopy_reg
_reconstructor
p7
(csymboltable
Dictlist
p8
c__builtin__
dict
p9
(dp10
S'main'
p11
(lp12
(isymboltable
SymbolTable
p13
(dp14
g2
I0
sg6
g7
(g8
g9
(dp15
tp16
Rp17
sS'itemcount'
p18
I3
sS'name'
p19
g11
sS'parent'
p20
g4
sS'offsetmap'
p21
(dp22
I8
I1
sI12
I2
sI4
I0
ssS'variables'
p23
(dp24
S'k'
p25
(lp26
I0
aS'INT'
p27
aI0
aI8
asS'm'
p28
(lp29
I0
ag27
aI0
aI0
asS'n'
p30
(lp31
I0
ag27
aI0
aI4
assS'sizevars'
p32
(dp33
S't76'
p34
(lp35
I0
ag27
aI0
asg25
(lp36
I0
ag27
aI0
asg28
(lp37
I0
ag27
aI0
asg30
(lp38
I0
ag27
aI0
assS'classes'
p39
g7
(g8
g9
(dp40
tp41
Rp42
sS'objects'
p43
(dp44
sS'offset'
p45
I12
sS'returnType'
p46
(lp47
sS'argList'
p48
(lp49
sS'uid'
p50
I5
sbasS'acker'
p51
(lp52
(isymboltable
SymbolTable
p53
(dp54
g2
I0
sg6
g7
(g8
g9
(dp55
tp56
Rp57
sg18
I9
sg19
g51
sg20
g4
sg21
(dp58
I32
I7
sI4
I0
sI8
I1
sI12
I2
sI16
I3
sI20
I4
sI24
I5
sI36
I8
sI28
I6
ssg23
(dp59
S't46'
p60
(lp61
I0
ag27
aI0
aI28
asS't43'
p62
(lp63
I0
ag27
aI0
aI24
asS't53'
p64
(lp65
I0
ag27
aI0
aI32
asg28
(lp66
I0
ag27
aI0
aI0
asS'l'
p67
(lp68
I0
ag27
aI0
aI16
asg30
(lp69
I0
ag27
aI0
aI4
asS't'
p70
(lp71
I0
ag27
aI0
aI8
asS't36'
p72
(lp73
I0
ag27
aI0
aI20
asS'z'
p74
(lp75
I0
ag27
aI0
aI12
assg32
(dp76
S't22'
p77
(lp78
I0
aS'BOOL'
p79
aI0
asg60
(lp80
I0
ag27
aI0
asg62
(lp81
I0
ag27
aI0
asg64
(lp82
I0
ag27
aI0
asg28
(lp83
I0
ag27
aI0
asg67
(lp84
I0
ag27
aI0
asg30
(lp85
I0
ag27
aI0
asS't11'
p86
(lp87
I0
ag79
aI0
asS't12'
p88
(lp89
I0
ag27
aI0
asg72
(lp90
I0
ag27
aI0
asS't23'
p91
(lp92
I0
ag27
aI0
asg74
(lp93
I0
ag27
aI0
asS't30'
p94
(lp95
I0
ag27
aI0
asg70
(lp96
I0
ag27
aI0
assg39
g7
(g8
g9
(dp97
tp98
Rp99
sg43
(dp100
sg45
I36
sg46
(lp101
g27
asg48
(lp102
g27
ag27
asg50
I2
sbastp103
Rp104
sg18
I0
sg19
S'object'
p105
sg20
g0
sg21
(dp106
sg23
(dp107
sg32
(dp108
sg39
g7
(g8
g9
(dp109
tp110
Rp111
sg43
(dp112
sg45
I0
sg46
Nsg48
(lp113
sg50
I1
sbsg6
g7
(g8
g9
(dp114
tp115
Rp116
sg18
I0
sg19
S'root'
p117
sg20
Nsg21
(dp118
sg23
(dp119
sg32
(dp120
sg39
g7
(g8
g9
(dp121
tp122
Rp123
sg43
(dp124
sg45
I0
sg46
Nsg48
g113
sg50
I0
sb.