(isymboltable
SymbolTable
p0
(dp1
S'listdict'
p2
(dp3
sS'functions'
p4
ccopy_reg
_reconstructor
p5
(csymboltable
Dictlist
p6
c__builtin__
dict
p7
(dp8
tp9
Rp10
sS'itemcount'
p11
I0
sS'name'
p12
S'root'
p13
sS'objects'
p14
(dp15
sS'offsetmap'
p16
(dp17
sS'variables'
p18
(dp19
sS'size'
p20
I0
sS'sizevars'
p21
(dp22
sS'classes'
p23
g5
(g6
g7
(dp24
tp25
Rp26
sS'parent'
p27
NsS'singletonObject'
p28
(isymboltable
SymbolTable
p29
(dp30
g2
(dp31
S'f2'
p32
I3
ssg4
g5
(g6
g7
(dp33
S'main'
p34
(lp35
(isymboltable
SymbolTable
p36
(dp37
g2
(dp38
S'f'
p39
I3
ssg4
g5
(g6
g7
(dp40
tp41
Rp42
sg11
I3
sg12
g34
sg14
(dp43
sg16
(dp44
I40
I0
sI50
I1
sI54
I2
ssg18
(dp45
S'a'
p46
(lp47
I0
aS'INT'
p48
aI0
aI50
asS'f1'
p49
(lp50
I0
aS'ARRAYINT'
p51
aI10
aI0
asg39
(lp52
I0
aS'LISTINT'
p53
aI0
aI40
assg20
I0
sg21
(dp54
g46
(lp55
I0
ag48
aI0
asg49
(lp56
I0
ag51
aI10
asg39
(lp57
I0
ag53
aI0
assg23
g5
(g6
g7
(dp58
tp59
Rp60
sg27
g29
sS'offset'
p61
I54
sS'returnType'
p62
(lp63
sS'argList'
p64
(lp65
sS'uid'
p66
I3
sbasS't'
p67
(lp68
(isymboltable
SymbolTable
p69
(dp70
g2
(dp71
sg4
g5
(g6
g7
(dp72
tp73
Rp74
sg11
I2
sg12
g67
sg14
(dp75
sg16
(dp76
I8
I1
sI4
I0
ssg18
(dp77
g46
(lp78
I0
ag48
aI0
aI0
asS'b'
p79
(lp80
I0
ag48
aI0
aI4
assg20
I0
sg21
(dp81
g46
(lp82
I0
ag48
aI0
asg79
(lp83
I0
ag48
aI0
assg23
g5
(g6
g7
(dp84
tp85
Rp86
sg27
g29
sg61
I8
sg62
(lp87
sg64
(lp88
g48
ag48
asg66
I2
sbastp89
Rp90
sg11
I1
sg12
S'object'
p91
sg14
(dp92
sg16
(dp93
I10
I0
ssg18
(dp94
g32
(lp95
I0
aS'LISTINT'
p96
aI0
aI0
assg20
I0
sg21
(dp97
g32
(lp98
I0
ag96
aI0
assg23
g5
(g6
g7
(dp99
tp100
Rp101
sg27
g0
sg61
I10
sg62
Nsg64
(lp102
sg66
I1
sbsg61
I0
sg62
Nsg64
g102
sg66
I0
sb.