(isymboltable
SymbolTable
p0
(dp1
S'size'
p2
I0
sS'singletonObject'
p3
(isymboltable
SymbolTable
p4
(dp5
g2
I0
sS'functions'
p6
ccopy_reg
_reconstructor
p7
(csymboltable
Dictlist
p8
c__builtin__
dict
p9
(dp10
S'fibo'
p11
(lp12
(isymboltable
SymbolTable
p13
(dp14
g2
I0
sg6
g7
(g8
g9
(dp15
tp16
Rp17
sS'itemcount'
p18
I7
sS'name'
p19
g11
sS'parent'
p20
g4
sS'offsetmap'
p21
(dp22
I64
I6
sI4
I0
sI44
I1
sI48
I2
sI52
I3
sI56
I4
sI60
I5
ssS'variables'
p23
(dp24
S'f'
p25
(lp26
I0
aS'ARRAYINT'
p27
aI10
aI4
asS'i'
p28
(lp29
I0
aS'INT'
p30
aI0
aI44
asS't5'
p31
(lp32
I0
aS'INT'
p33
aI0
aI48
asS'n'
p34
(lp35
I0
ag30
aI0
aI0
asS't10'
p36
(lp37
I0
aS'INT'
p38
aI0
aI52
asS't'
p39
(lp40
I0
ag30
aI0
aI60
asS't36'
p41
(lp42
I0
aS'INT'
p43
aI0
aI56
assS'sizevars'
p44
(dp45
S't19'
p46
(lp47
I0
aS'INT'
p48
aI0
asg25
(lp49
I0
ag27
aI10
asg28
(lp50
I0
ag30
aI0
asg31
(lp51
I0
ag33
aI0
asg34
(lp52
I0
ag30
aI0
asS't28'
p53
(lp54
I0
aS'INT'
p55
aI0
asg36
(lp56
I0
ag38
aI0
asg39
(lp57
I0
ag30
aI0
asg41
(lp58
I0
ag43
aI0
asS't20'
p59
(lp60
I0
ag30
aI0
asS't23'
p61
(lp62
I0
aS'INT'
p63
aI0
asS't24'
p64
(lp65
I0
ag30
aI0
asS't27'
p66
(lp67
I0
aS'INT'
p68
aI0
assS'classes'
p69
g7
(g8
g9
(dp70
tp71
Rp72
sS'objects'
p73
(dp74
sS'offset'
p75
I64
sS'returnType'
p76
(lp77
g30
asS'argList'
p78
(lp79
g30
asS'uid'
p80
I2
sbasS'main'
p81
(lp82
(isymboltable
SymbolTable
p83
(dp84
g2
I0
sg6
g7
(g8
g9
(dp85
tp86
Rp87
sg18
I3
sg19
g81
sg20
g4
sg21
(dp88
I10
I0
sI18
I2
sI14
I1
ssg23
(dp89
S't43'
p90
(lp91
I0
ag30
aI0
aI10
asS'k'
p92
(lp93
I0
ag30
aI0
aI14
asS'args'
p94
(lp95
I0
aS'ARRAYSTRING'
p96
aI0
aI0
assg44
(dp97
g90
(lp98
I0
ag30
aI0
asg92
(lp99
I0
ag30
aI0
asg94
(lp100
I0
ag96
aI0
assg69
g7
(g8
g9
(dp101
tp102
Rp103
sg73
(dp104
sg75
I18
sg76
(lp105
sg78
(lp106
g96
asg80
I4
sbastp107
Rp108
sg18
I0
sg19
S'object'
p109
sg20
g0
sg21
(dp110
sg23
(dp111
sg44
(dp112
sg69
g7
(g8
g9
(dp113
tp114
Rp115
sg73
(dp116
sg75
I0
sg76
Nsg78
(lp117
sg80
I1
sbsg6
g7
(g8
g9
(dp118
tp119
Rp120
sg18
I0
sg19
S'root'
p121
sg20
Nsg21
(dp122
sg23
(dp123
sg44
(dp124
sg69
g7
(g8
g9
(dp125
tp126
Rp127
sg73
(dp128
sg75
I0
sg76
Nsg78
g117
sg80
I0
sb.