(isymboltable
SymbolTable
p0
(dp1
S'size'
p2
I0
sS'singletonObject'
p3
(isymboltable
SymbolTable
p4
(dp5
g2
I0
sS'functions'
p6
ccopy_reg
_reconstructor
p7
(csymboltable
Dictlist
p8
c__builtin__
dict
p9
(dp10
S'main'
p11
(lp12
(isymboltable
SymbolTable
p13
(dp14
g2
I0
sg6
g7
(g8
g9
(dp15
tp16
Rp17
sS'itemcount'
p18
I3
sS'name'
p19
g11
sS'parent'
p20
g4
sS'offsetmap'
p21
(dp22
I10
I0
sI18
I2
sI14
I1
ssS'variables'
p23
(dp24
S'k'
p25
(lp26
I0
aS'INT'
p27
aI0
aI14
asS'args'
p28
(lp29
I0
aS'ARRAYSTRING'
p30
aI0
aI0
asS't26'
p31
(lp32
I0
ag27
aI0
aI10
assS'sizevars'
p33
(dp34
g25
(lp35
I0
ag27
aI0
asg28
(lp36
I0
ag30
aI0
asg31
(lp37
I0
ag27
aI0
assS'classes'
p38
g7
(g8
g9
(dp39
tp40
Rp41
sS'objects'
p42
(dp43
sS'offset'
p44
I18
sS'returnType'
p45
(lp46
sS'argList'
p47
(lp48
g30
asS'uid'
p49
I3
sbasS'sub'
p50
(lp51
(isymboltable
SymbolTable
p52
(dp53
g2
I0
sg6
g7
(g8
g9
(dp54
tp55
Rp56
sg18
I15
sg19
g50
sg20
g4
sg21
(dp57
I32
I7
sI48
I11
sI4
I0
sI8
I1
sI44
I10
sI12
I2
sI60
I14
sI16
I3
sI40
I9
sI20
I4
sI56
I13
sI24
I5
sI36
I8
sI28
I6
sI52
I12
ssg23
(dp58
S'a'
p59
(lp60
I0
ag27
aI0
aI0
asS'c'
p61
(lp62
I0
ag27
aI0
aI8
asS'b'
p63
(lp64
I0
ag27
aI0
aI4
asS'e'
p65
(lp66
I0
ag27
aI0
aI16
asS'd'
p67
(lp68
I0
ag27
aI0
aI12
asS'g'
p69
(lp70
I0
ag27
aI0
aI24
asS'f'
p71
(lp72
I0
ag27
aI0
aI20
asS't6'
p73
(lp74
I0
ag27
aI0
aI52
asS'h'
p75
(lp76
I0
ag27
aI0
aI28
asS't4'
p77
(lp78
I0
ag27
aI0
aI44
asS't5'
p79
(lp80
I0
ag27
aI0
aI48
asS't2'
p81
(lp82
I0
ag27
aI0
aI36
asS't3'
p83
(lp84
I0
ag27
aI0
aI40
asS't1'
p85
(lp86
I0
ag27
aI0
aI32
asS't7'
p87
(lp88
I0
ag27
aI0
aI56
assg33
(dp89
g59
(lp90
I0
ag27
aI0
asg61
(lp91
I0
ag27
aI0
asg63
(lp92
I0
ag27
aI0
asg65
(lp93
I0
ag27
aI0
asg67
(lp94
I0
ag27
aI0
asg69
(lp95
I0
ag27
aI0
asg71
(lp96
I0
ag27
aI0
asg73
(lp97
I0
ag27
aI0
asg75
(lp98
I0
ag27
aI0
asg77
(lp99
I0
ag27
aI0
asg79
(lp100
I0
ag27
aI0
asg81
(lp101
I0
ag27
aI0
asg83
(lp102
I0
ag27
aI0
asg85
(lp103
I0
ag27
aI0
asg87
(lp104
I0
ag27
aI0
assg38
g7
(g8
g9
(dp105
tp106
Rp107
sg42
(dp108
sg44
I60
sg45
(lp109
g27
asg47
(lp110
g27
ag27
ag27
ag27
ag27
ag27
ag27
ag27
asg49
I2
sbastp111
Rp112
sg18
I0
sg19
S'object'
p113
sg20
g0
sg21
(dp114
sg23
(dp115
sg33
(dp116
sg38
g7
(g8
g9
(dp117
tp118
Rp119
sg42
(dp120
sg44
I0
sg45
Nsg47
(lp121
sg49
I1
sbsg6
g7
(g8
g9
(dp122
tp123
Rp124
sg18
I0
sg19
S'root'
p125
sg20
Nsg21
(dp126
sg23
(dp127
sg33
(dp128
sg38
g7
(g8
g9
(dp129
tp130
Rp131
sg42
(dp132
sg44
I0
sg45
Nsg47
g121
sg49
I0
sb.