(isymboltable
SymbolTable
p0
(dp1
S'listdict'
p2
(dp3
sS'functions'
p4
ccopy_reg
_reconstructor
p5
(csymboltable
Dictlist
p6
c__builtin__
dict
p7
(dp8
tp9
Rp10
sS'itemcount'
p11
I0
sS'name'
p12
S'root'
p13
sS'objects'
p14
(dp15
sS'offsetmap'
p16
(dp17
sS'variables'
p18
(dp19
sS'size'
p20
I0
sS'sizevars'
p21
(dp22
sS'classes'
p23
g5
(g6
g7
(dp24
tp25
Rp26
sS'parent'
p27
NsS'singletonObject'
p28
(isymboltable
SymbolTable
p29
(dp30
g2
(dp31
S'f3'
p32
(dp33
S'1'
p34
I3
sS'0'
p35
I0
sS'3'
p36
I1
sS'2'
p37
I0
sS'5'
p38
I0
sS'4'
p39
I0
sS'7'
p40
I0
sS'6'
p41
I0
sS'9'
p42
I0
sS'8'
p43
I0
sssg4
g5
(g6
g7
(dp44
S'main'
p45
(lp46
(isymboltable
SymbolTable
p47
(dp48
g2
(dp49
sg4
g5
(g6
g7
(dp50
tp51
Rp52
sg11
I13
sg12
g45
sg14
(dp53
sg16
(dp54
I32
I7
sI48
I11
sI4
I0
sI8
I1
sI44
I10
sI12
I2
sI16
I3
sI40
I9
sI20
I4
sI24
I5
sI36
I8
sI28
I6
sI52
I12
ssg18
(dp55
S't50'
p56
(lp57
I0
aS'INT'
p58
aI0
aI44
asS't52'
p59
(lp60
I0
aS'INT'
p61
aI0
aI48
asS'i'
p62
(lp63
I0
ag61
aI0
aI0
asS't25'
p64
(lp65
I0
ag61
aI0
aI12
asS't41'
p66
(lp67
I0
aS'INT'
p68
aI0
aI32
asS't34'
p69
(lp70
I0
ag61
aI0
aI24
asS't33'
p71
(lp72
I0
ag61
aI0
aI16
asS't43'
p73
(lp74
I0
ag61
aI0
aI36
asS't42'
p75
(lp76
I0
ag61
aI0
aI28
asS't23'
p77
(lp78
I0
aS'INT'
p79
aI0
aI8
asS't32'
p80
(lp81
I0
aS'INT'
p82
aI0
aI20
asS't24'
p83
(lp84
I0
ag61
aI0
aI4
asS't51'
p85
(lp86
I0
ag61
aI0
aI40
assg20
I0
sg21
(dp87
g56
(lp88
I0
ag58
aI0
asg59
(lp89
I0
ag61
aI0
asg62
(lp90
I0
ag61
aI0
asg64
(lp91
I0
ag61
aI0
asg66
(lp92
I0
ag68
aI0
asg69
(lp93
I0
ag61
aI0
asg71
(lp94
I0
ag61
aI0
asg73
(lp95
I0
ag61
aI0
asg75
(lp96
I0
ag61
aI0
asg77
(lp97
I0
ag79
aI0
asg80
(lp98
I0
ag82
aI0
asg83
(lp99
I0
ag61
aI0
asg85
(lp100
I0
ag61
aI0
assg23
g5
(g6
g7
(dp101
tp102
Rp103
sg27
g29
sS'offset'
p104
I52
sS'returnType'
p105
(lp106
sS'argList'
p107
(lp108
sS'uid'
p109
I2
sbastp110
Rp111
sg11
I1
sg12
S'object'
p112
sg14
(dp113
sg16
(dp114
I100
I0
ssg18
(dp115
g32
(lp116
I0
aS'LIST@LIST@INT'
p117
aI10
aI0
assg20
I0
sg21
(dp118
g32
(lp119
I0
ag117
aI10
assg23
g5
(g6
g7
(dp120
tp121
Rp122
sg27
g0
sg104
I100
sg105
Nsg107
(lp123
sg109
I1
sbsg104
I0
sg105
Nsg107
g123
sg109
I0
sb.