(isymboltable
SymbolTable
p0
(dp1
S'size'
p2
I0
sS'singletonObject'
p3
(isymboltable
SymbolTable
p4
(dp5
g2
I0
sS'functions'
p6
ccopy_reg
_reconstructor
p7
(csymboltable
Dictlist
p8
c__builtin__
dict
p9
(dp10
S'main'
p11
(lp12
(isymboltable
SymbolTable
p13
(dp14
g2
I0
sg6
g7
(g8
g9
(dp15
tp16
Rp17
sS'itemcount'
p18
I2
sS'name'
p19
g11
sS'parent'
p20
g4
sS'offsetmap'
p21
(dp22
I8
I1
sI4
I0
ssS'variables'
p23
(dp24
S'm'
p25
(lp26
I0
aS'INT'
p27
aI0
aI0
asS'n'
p28
(lp29
I0
ag27
aI0
aI4
assS'sizevars'
p30
(dp31
S't54'
p32
(lp33
I0
ag27
aI0
asg25
(lp34
I0
ag27
aI0
asg28
(lp35
I0
ag27
aI0
assS'classes'
p36
g7
(g8
g9
(dp37
tp38
Rp39
sS'objects'
p40
(dp41
sS'offset'
p42
I8
sS'returnType'
p43
(lp44
sS'argList'
p45
(lp46
sS'uid'
p47
I5
sbasS'acker'
p48
(lp49
(isymboltable
SymbolTable
p50
(dp51
g2
I0
sg6
g7
(g8
g9
(dp52
tp53
Rp54
sg18
I6
sg19
g48
sg20
g4
sg21
(dp55
I4
I0
sI8
I1
sI12
I2
sI16
I3
sI20
I4
sI24
I5
ssg23
(dp56
g25
(lp57
I0
ag27
aI0
aI0
asg28
(lp58
I0
ag27
aI0
aI4
asS't29'
p59
(lp60
I0
ag27
aI0
aI12
asS't35'
p61
(lp62
I0
ag27
aI0
aI20
asS't32'
p63
(lp64
I0
ag27
aI0
aI16
asS't24'
p65
(lp66
I0
ag27
aI0
aI8
assg30
(dp67
g59
(lp68
I0
ag27
aI0
asS't6'
p69
(lp70
I0
ag27
aI0
asS't5'
p71
(lp72
I0
aS'BOOL'
p73
aI0
asg25
(lp74
I0
ag27
aI0
asg28
(lp75
I0
ag27
aI0
asS't14'
p76
(lp77
I0
ag73
aI0
asS't15'
p78
(lp79
I0
ag27
aI0
asS't20'
p80
(lp81
I0
ag27
aI0
asg61
(lp82
I0
ag27
aI0
asg63
(lp83
I0
ag27
aI0
asg65
(lp84
I0
ag27
aI0
assg36
g7
(g8
g9
(dp85
tp86
Rp87
sg40
(dp88
sg42
I24
sg43
(lp89
g27
asg45
(lp90
g27
ag27
asg47
I2
sbastp91
Rp92
sg18
I0
sg19
S'object'
p93
sg20
g0
sg21
(dp94
sg23
(dp95
sg30
(dp96
sg36
g7
(g8
g9
(dp97
tp98
Rp99
sg40
(dp100
sg42
I0
sg43
Nsg45
(lp101
sg47
I1
sbsg6
g7
(g8
g9
(dp102
tp103
Rp104
sg18
I0
sg19
S'root'
p105
sg20
Nsg21
(dp106
sg23
(dp107
sg30
(dp108
sg36
g7
(g8
g9
(dp109
tp110
Rp111
sg40
(dp112
sg42
I0
sg43
Nsg45
g101
sg47
I0
sb.