(isymboltable
SymbolTable
p0
(dp1
S'listdict'
p2
(dp3
sS'functions'
p4
ccopy_reg
_reconstructor
p5
(csymboltable
Dictlist
p6
c__builtin__
dict
p7
(dp8
tp9
Rp10
sS'itemcount'
p11
I0
sS'name'
p12
S'root'
p13
sS'objects'
p14
(dp15
sS'offsetmap'
p16
(dp17
sS'variables'
p18
(dp19
sS'size'
p20
I0
sS'sizevars'
p21
(dp22
sS'classes'
p23
g5
(g6
g7
(dp24
tp25
Rp26
sS'parent'
p27
NsS'singletonObject'
p28
(isymboltable
SymbolTable
p29
(dp30
g2
(dp31
sg4
g5
(g6
g7
(dp32
S'fibo'
p33
(lp34
(isymboltable
SymbolTable
p35
(dp36
g2
(dp37
sg4
g5
(g6
g7
(dp38
tp39
Rp40
sg11
I8
sg12
g33
sg14
(dp41
sg16
(dp42
I4004
I1
sI4008
I2
sI4012
I3
sI4016
I4
sI4020
I5
sI4024
I6
sI4
I0
sI4028
I7
ssg18
(dp43
S't40'
p44
(lp45
I0
aS'INT'
p46
aI0
aI4016
asS'f'
p47
(lp48
I0
aS'ARRAYINT'
p49
aI1000
aI4
asS'i'
p50
(lp51
I0
ag46
aI0
aI4004
asS't5'
p52
(lp53
I0
aS'INT'
p54
aI0
aI4008
asS'n'
p55
(lp56
I0
ag46
aI0
aI0
asS't10'
p57
(lp58
I0
aS'INT'
p59
aI0
aI4012
asS't'
p60
(lp61
I0
ag46
aI0
aI4024
asS't39'
p62
(lp63
I0
aS'INT'
p64
aI0
aI4020
assg20
I0
sg21
(dp65
S't19'
p66
(lp67
I0
aS'INT'
p68
aI0
asg44
(lp69
I0
ag46
aI0
asg47
(lp70
I0
ag49
aI1000
asg50
(lp71
I0
ag46
aI0
asg52
(lp72
I0
ag54
aI0
asg55
(lp73
I0
ag46
aI0
asS't29'
p74
(lp75
I0
aS'INT'
p76
aI0
asg57
(lp77
I0
ag59
aI0
asg60
(lp78
I0
ag46
aI0
asg62
(lp79
I0
ag64
aI0
asS't21'
p80
(lp81
I0
ag46
aI0
asS't20'
p82
(lp83
I0
ag46
aI0
asS't26'
p84
(lp85
I0
ag46
aI0
asS't25'
p86
(lp87
I0
ag46
aI0
asS't24'
p88
(lp89
I0
aS'INT'
p90
aI0
asS't30'
p91
(lp92
I0
ag46
aI0
asS't31'
p93
(lp94
I0
aS'INT'
p95
aI0
assg23
g5
(g6
g7
(dp96
tp97
Rp98
sg27
g29
sS'offset'
p99
I4028
sS'returnType'
p100
(lp101
g46
asS'argList'
p102
(lp103
g46
asS'uid'
p104
I2
sbasS'main'
p105
(lp106
(isymboltable
SymbolTable
p107
(dp108
g2
(dp109
sg4
g5
(g6
g7
(dp110
tp111
Rp112
sg11
I2
sg12
g105
sg14
(dp113
sg16
(dp114
I8
I1
sI4
I0
ssg18
(dp115
S'k'
p116
(lp117
I0
ag46
aI0
aI0
asS't53'
p118
(lp119
I0
ag46
aI0
aI4
assg20
I0
sg21
(dp120
g116
(lp121
I0
ag46
aI0
asg118
(lp122
I0
ag46
aI0
assg23
g5
(g6
g7
(dp123
tp124
Rp125
sg27
g29
sg99
I8
sg100
(lp126
sg102
(lp127
sg104
I4
sbastp128
Rp129
sg11
I0
sg12
S'object'
p130
sg14
(dp131
sg16
(dp132
sg18
(dp133
sg20
I0
sg21
(dp134
sg23
g5
(g6
g7
(dp135
tp136
Rp137
sg27
g0
sg99
I0
sg100
Nsg102
(lp138
sg104
I1
sbsg99
I0
sg100
Nsg102
g138
sg104
I0
sb.