(isymboltable
SymbolTable
p0
(dp1
S'listdict'
p2
(dp3
sS'functions'
p4
ccopy_reg
_reconstructor
p5
(csymboltable
Dictlist
p6
c__builtin__
dict
p7
(dp8
tp9
Rp10
sS'itemcount'
p11
I0
sS'name'
p12
S'root'
p13
sS'objects'
p14
(dp15
sS'offsetmap'
p16
(dp17
sS'variables'
p18
(dp19
sS'size'
p20
I0
sS'sizevars'
p21
(dp22
sS'classes'
p23
g5
(g6
g7
(dp24
tp25
Rp26
sS'parent'
p27
NsS'singletonObject'
p28
(isymboltable
SymbolTable
p29
(dp30
g2
(dp31
S'f2'
p32
I0
sS'f3'
p33
(dp34
S'1'
p35
I2
sS'0'
p36
I0
sS'3'
p37
I0
sS'2'
p38
I0
sS'5'
p39
I0
sS'4'
p40
I0
sS'7'
p41
I0
sS'6'
p42
I0
sS'9'
p43
I0
sS'8'
p44
I0
sssg4
g5
(g6
g7
(dp45
S'main'
p46
(lp47
(isymboltable
SymbolTable
p48
(dp49
g2
(dp50
S'f'
p51
I4
ssg4
g5
(g6
g7
(dp52
tp53
Rp54
sg11
I4
sg12
g46
sg14
(dp55
sg16
(dp56
I40
I0
sI50
I1
sI58
I3
sI54
I2
ssg18
(dp57
S'a'
p58
(lp59
I0
aS'INT'
p60
aI0
aI54
asS'f1'
p61
(lp62
I0
aS'ARRAYINT'
p63
aI10
aI0
asS't33'
p64
(lp65
I0
aS'INT'
p66
aI0
aI50
asg51
(lp67
I0
aS'LIST@INT'
p68
aI0
aI40
assg20
I0
sg21
(dp69
g58
(lp70
I0
ag60
aI0
asg61
(lp71
I0
ag63
aI10
asg64
(lp72
I0
ag66
aI0
asg51
(lp73
I0
ag68
aI0
assg23
g5
(g6
g7
(dp74
tp75
Rp76
sg27
g29
sS'offset'
p77
I58
sS'returnType'
p78
(lp79
sS'argList'
p80
(lp81
sS'uid'
p82
I3
sbasS't'
p83
(lp84
(isymboltable
SymbolTable
p85
(dp86
g2
(dp87
sg4
g5
(g6
g7
(dp88
tp89
Rp90
sg11
I2
sg12
g83
sg14
(dp91
sg16
(dp92
I8
I1
sI4
I0
ssg18
(dp93
g58
(lp94
I0
ag60
aI0
aI0
asS'b'
p95
(lp96
I0
ag60
aI0
aI4
assg20
I0
sg21
(dp97
g58
(lp98
I0
ag60
aI0
asg95
(lp99
I0
ag60
aI0
assg23
g5
(g6
g7
(dp100
tp101
Rp102
sg27
g29
sg77
I8
sg78
(lp103
sg80
(lp104
g60
ag60
asg82
I2
sbastp105
Rp106
sg11
I2
sg12
S'object'
p107
sg14
(dp108
sg16
(dp109
I10
I0
sI110
I1
ssg18
(dp110
g32
(lp111
I0
aS'LIST@INT'
p112
aI0
aI0
asg33
(lp113
I0
aS'LIST@LIST@INT'
p114
aI10
aI10
assg20
I0
sg21
(dp115
g32
(lp116
I0
ag112
aI0
asg33
(lp117
I0
ag114
aI10
assg23
g5
(g6
g7
(dp118
tp119
Rp120
sg27
g0
sg77
I110
sg78
Nsg80
(lp121
sg82
I1
sbsg77
I0
sg78
Nsg80
g121
sg82
I0
sb.